
GMD.elf:     file format elf32-avr

Sections:
Idx Name          Size      VMA       LMA       File off  Algn
  0 .data         00000014  00800100  0000293e  000029d2  2**0
                  CONTENTS, ALLOC, LOAD, DATA
  1 .text         0000293e  00000000  00000000  00000094  2**1
                  CONTENTS, ALLOC, LOAD, READONLY, CODE
  2 .bss          0000020b  00800114  00800114  000029e6  2**0
                  ALLOC
  3 .stab         0000276c  00000000  00000000  000029e8  2**2
                  CONTENTS, READONLY, DEBUGGING
  4 .stabstr      00000943  00000000  00000000  00005154  2**0
                  CONTENTS, READONLY, DEBUGGING
  5 .comment      0000002f  00000000  00000000  00005a97  2**0
                  CONTENTS, READONLY
  6 .debug_aranges 00000060  00000000  00000000  00005ac6  2**0
                  CONTENTS, READONLY, DEBUGGING
  7 .debug_info   00000b49  00000000  00000000  00005b26  2**0
                  CONTENTS, READONLY, DEBUGGING
  8 .debug_abbrev 000003ef  00000000  00000000  0000666f  2**0
                  CONTENTS, READONLY, DEBUGGING
  9 .debug_line   00000799  00000000  00000000  00006a5e  2**0
                  CONTENTS, READONLY, DEBUGGING
 10 .debug_frame  000000fc  00000000  00000000  000071f8  2**2
                  CONTENTS, READONLY, DEBUGGING
 11 .debug_str    00000275  00000000  00000000  000072f4  2**0
                  CONTENTS, READONLY, DEBUGGING
 12 .debug_loc    00000aa9  00000000  00000000  00007569  2**0
                  CONTENTS, READONLY, DEBUGGING
 13 .debug_ranges 00000048  00000000  00000000  00008012  2**0
                  CONTENTS, READONLY, DEBUGGING

Disassembly of section .text:

00000000 <__vectors>:
       0:	54 c1       	rjmp	.+680    	; 0x2aa <__ctors_end>
       2:	00 00       	nop
       4:	70 c1       	rjmp	.+736    	; 0x2e6 <__bad_interrupt>
       6:	00 00       	nop
       8:	6e c1       	rjmp	.+732    	; 0x2e6 <__bad_interrupt>
       a:	00 00       	nop
       c:	6c c1       	rjmp	.+728    	; 0x2e6 <__bad_interrupt>
       e:	00 00       	nop
      10:	6a c1       	rjmp	.+724    	; 0x2e6 <__bad_interrupt>
      12:	00 00       	nop
      14:	68 c1       	rjmp	.+720    	; 0x2e6 <__bad_interrupt>
      16:	00 00       	nop
      18:	66 c1       	rjmp	.+716    	; 0x2e6 <__bad_interrupt>
      1a:	00 00       	nop
      1c:	64 c1       	rjmp	.+712    	; 0x2e6 <__bad_interrupt>
      1e:	00 00       	nop
      20:	62 c1       	rjmp	.+708    	; 0x2e6 <__bad_interrupt>
      22:	00 00       	nop
      24:	60 c1       	rjmp	.+704    	; 0x2e6 <__bad_interrupt>
      26:	00 00       	nop
      28:	5e c1       	rjmp	.+700    	; 0x2e6 <__bad_interrupt>
      2a:	00 00       	nop
      2c:	5c c1       	rjmp	.+696    	; 0x2e6 <__bad_interrupt>
      2e:	00 00       	nop
      30:	5a c1       	rjmp	.+692    	; 0x2e6 <__bad_interrupt>
      32:	00 00       	nop
      34:	58 c1       	rjmp	.+688    	; 0x2e6 <__bad_interrupt>
      36:	00 00       	nop
      38:	56 c1       	rjmp	.+684    	; 0x2e6 <__bad_interrupt>
      3a:	00 00       	nop
      3c:	54 c1       	rjmp	.+680    	; 0x2e6 <__bad_interrupt>
      3e:	00 00       	nop
      40:	52 c1       	rjmp	.+676    	; 0x2e6 <__bad_interrupt>
      42:	00 00       	nop
      44:	50 c1       	rjmp	.+672    	; 0x2e6 <__bad_interrupt>
      46:	00 00       	nop
      48:	4e c1       	rjmp	.+668    	; 0x2e6 <__bad_interrupt>
      4a:	00 00       	nop
      4c:	4c c1       	rjmp	.+664    	; 0x2e6 <__bad_interrupt>
      4e:	00 00       	nop
      50:	4a c1       	rjmp	.+660    	; 0x2e6 <__bad_interrupt>
      52:	00 00       	nop
      54:	48 c1       	rjmp	.+656    	; 0x2e6 <__bad_interrupt>
      56:	00 00       	nop
      58:	46 c1       	rjmp	.+652    	; 0x2e6 <__bad_interrupt>
      5a:	00 00       	nop
      5c:	44 c1       	rjmp	.+648    	; 0x2e6 <__bad_interrupt>
      5e:	00 00       	nop
      60:	42 c1       	rjmp	.+644    	; 0x2e6 <__bad_interrupt>
      62:	00 00       	nop
      64:	40 c1       	rjmp	.+640    	; 0x2e6 <__bad_interrupt>
      66:	00 00       	nop
      68:	3e c1       	rjmp	.+636    	; 0x2e6 <__bad_interrupt>
      6a:	00 00       	nop
      6c:	3c c1       	rjmp	.+632    	; 0x2e6 <__bad_interrupt>
      6e:	00 00       	nop
      70:	3a c1       	rjmp	.+628    	; 0x2e6 <__bad_interrupt>
      72:	00 00       	nop
      74:	38 c1       	rjmp	.+624    	; 0x2e6 <__bad_interrupt>
      76:	00 00       	nop
      78:	36 c1       	rjmp	.+620    	; 0x2e6 <__bad_interrupt>
      7a:	00 00       	nop
      7c:	34 c1       	rjmp	.+616    	; 0x2e6 <__bad_interrupt>
      7e:	00 00       	nop
      80:	32 c1       	rjmp	.+612    	; 0x2e6 <__bad_interrupt>
      82:	00 00       	nop
      84:	30 c1       	rjmp	.+608    	; 0x2e6 <__bad_interrupt>
      86:	00 00       	nop
      88:	2e c1       	rjmp	.+604    	; 0x2e6 <__bad_interrupt>
	...

0000008c <http1>:
      8c:	48 54 54 50 2f 31 2e 30 20 32 30 30 20 4f 4b 0d     HTTP/1.0 200 OK.
      9c:	0a 43 6f 6e 74 65 6e 74 2d 54 79 70 65 3a 20 74     .Content-Type: t
      ac:	65 78 74 2f 68 74 6d 6c 0d 0a 50 72 61 67 6d 61     ext/html..Pragma
      bc:	3a 20 6e 6f 2d 63 61 63 68 65 0d 0a 0d 0a 00        : no-cache.....

000000cb <http2>:
      cb:	3c 68 31 3e 32 30 30 20 4f 4b 3c 2f 68 31 3e 00     <h1>200 OK</h1>.

000000db <http3>:
      db:	3c 62 3e 41 54 6d 65 67 61 38 20 57 65 62 73 65     <b>ATmega8 Webse
      eb:	72 76 65 72 20 2f 20 45 4e 43 32 38 4a 36 30 3c     rver / ENC28J60<
      fb:	2f 62 3e 3c 62 72 3e 3c 62 72 3e 53 65 72 76 65     /b><br><br>Serve
     10b:	72 20 73 74 61 74 73 3a 3c 62 72 3e 41 63 63 3a     r stats:<br>Acc:
     11b:	25 64 20 50 6e 67 3a 25 64 3c 62 72 3e 3c 62 72     %d Png:%d<br><br
     12b:	3e 28 43 29 20 52 61 64 75 20 4d 6f 74 69 73 61     >(C) Radu Motisa
     13b:	6e 20 32 30 31 32 2c 20 77 77 77 2e 70 6f 63 6b     n 2012, www.pock
     14b:	65 74 6d 61 67 69 63 2e 6e 65 74 00                 etmagic.net.

00000157 <http4>:
     157:	48 54 54 50 2f 31 2e 30 20 34 30 31 20 55 6e 61     HTTP/1.0 401 Una
     167:	75 74 68 6f 72 69 7a 65 64 0d 0a 43 6f 6e 74 65     uthorized..Conte
     177:	6e 74 2d 54 79 70 65 3a 20 74 65 78 74 2f 68 74     nt-Type: text/ht
     187:	6d 6c 0d 0a 0d 0a 3c 68 31 3e 34 30 31 20 55 6e     ml....<h1>401 Un
     197:	61 75 74 68 6f 72 69 7a 65 64 3c 2f 68 31 3e 00     authorized</h1>.

000001a7 <__c.2006>:
     1a7:	6e 61 6e 00                                         nan.

000001ab <__c.2004>:
     1ab:	69 6e 66 00 00 40 7a 10 f3 5a 00 a0 72 4e 18 09     inf..@z..Z..rN..
     1bb:	00 10 a5 d4 e8 00 00 e8 76 48 17 00 00 e4 0b 54     ........vH.....T
     1cb:	02 00 00 ca 9a 3b 00 00 00 e1 f5 05 00 00 80 96     .....;..........
     1db:	98 00 00 00 40 42 0f 00 00 00 a0 86 01 00 00 00     ....@B..........
     1eb:	10 27 00 00 00 00 e8 03 00 00 00 00 64 00 00 00     .'..........d...
     1fb:	00 00 0a 00 00 00 00 00 01 00 00 00 00 00 2c 76     ..............,v
     20b:	d8 88 dc 67 4f 08 23 df c1 df ae 59 e1 b1 b7 96     ...gO.#....Y....
     21b:	e5 e3 e4 53 c6 3a e6 51 99 76 96 e8 e6 c2 84 26     ...S.:.Q.v.....&
     22b:	eb 89 8c 9b 62 ed 40 7c 6f fc ef bc 9c 9f 40 f2     ....b.@|o.....@.
     23b:	ba a5 6f a5 f4 90 05 5a 2a f7 5c 93 6b 6c f9 67     ..o....Z*.\.kl.g
     24b:	6d c1 1b fc e0 e4 0d 47 fe f5 20 e6 b5 00 d0 ed     m......G.. .....
     25b:	90 2e 03 00 94 35 77 05 00 80 84 1e 08 00 00 20     .....5w........ 
     26b:	4e 0a 00 00 00 c8 0c 33 33 33 33 0f 98 6e 12 83     N......3333..n..
     27b:	11 41 ef 8d 21 14 89 3b e6 55 16 cf fe e6 db 18     .A..!..;.U......
     28b:	d1 84 4b 38 1b f7 7c 1d 90 1d a4 bb e4 24 20 32     ..K8..|......$ 2
     29b:	84 72 5e 22 81 00 c9 f1 24 ec a1 e5 3d 27 00        .r^"....$...='.

000002aa <__ctors_end>:
     2aa:	11 24       	eor	r1, r1
     2ac:	1f be       	out	0x3f, r1	; 63
     2ae:	cf ef       	ldi	r28, 0xFF	; 255
     2b0:	d0 e4       	ldi	r29, 0x40	; 64
     2b2:	de bf       	out	0x3e, r29	; 62
     2b4:	cd bf       	out	0x3d, r28	; 61

000002b6 <__do_copy_data>:
     2b6:	11 e0       	ldi	r17, 0x01	; 1
     2b8:	a0 e0       	ldi	r26, 0x00	; 0
     2ba:	b1 e0       	ldi	r27, 0x01	; 1
     2bc:	ee e3       	ldi	r30, 0x3E	; 62
     2be:	f9 e2       	ldi	r31, 0x29	; 41
     2c0:	00 e0       	ldi	r16, 0x00	; 0
     2c2:	0b bf       	out	0x3b, r16	; 59
     2c4:	02 c0       	rjmp	.+4      	; 0x2ca <__do_copy_data+0x14>
     2c6:	07 90       	elpm	r0, Z+
     2c8:	0d 92       	st	X+, r0
     2ca:	a4 31       	cpi	r26, 0x14	; 20
     2cc:	b1 07       	cpc	r27, r17
     2ce:	d9 f7       	brne	.-10     	; 0x2c6 <__do_copy_data+0x10>

000002d0 <__do_clear_bss>:
     2d0:	23 e0       	ldi	r18, 0x03	; 3
     2d2:	a4 e1       	ldi	r26, 0x14	; 20
     2d4:	b1 e0       	ldi	r27, 0x01	; 1
     2d6:	01 c0       	rjmp	.+2      	; 0x2da <.do_clear_bss_start>

000002d8 <.do_clear_bss_loop>:
     2d8:	1d 92       	st	X+, r1

000002da <.do_clear_bss_start>:
     2da:	af 31       	cpi	r26, 0x1F	; 31
     2dc:	b2 07       	cpc	r27, r18
     2de:	e1 f7       	brne	.-8      	; 0x2d8 <.do_clear_bss_loop>
     2e0:	18 d0       	rcall	.+48     	; 0x312 <main>
     2e2:	0c 94 9d 14 	jmp	0x293a	; 0x293a <_exit>

000002e6 <__bad_interrupt>:
     2e6:	8c ce       	rjmp	.-744    	; 0x0 <__vectors>

000002e8 <PingCallback>:
     2e8:	cf 93       	push	r28
     2ea:	df 93       	push	r29
     2ec:	00 d0       	rcall	.+0      	; 0x2ee <PingCallback+0x6>
     2ee:	cd b7       	in	r28, 0x3d	; 61
     2f0:	de b7       	in	r29, 0x3e	; 62
     2f2:	9a 83       	std	Y+2, r25	; 0x02
     2f4:	89 83       	std	Y+1, r24	; 0x01
     2f6:	80 91 09 03 	lds	r24, 0x0309
     2fa:	90 91 0a 03 	lds	r25, 0x030A
     2fe:	01 96       	adiw	r24, 0x01	; 1
     300:	90 93 0a 03 	sts	0x030A, r25
     304:	80 93 09 03 	sts	0x0309, r24
     308:	0f 90       	pop	r0
     30a:	0f 90       	pop	r0
     30c:	df 91       	pop	r29
     30e:	cf 91       	pop	r28
     310:	08 95       	ret

00000312 <main>:
     312:	0f 93       	push	r16
     314:	1f 93       	push	r17
     316:	cf 93       	push	r28
     318:	df 93       	push	r29
     31a:	cd b7       	in	r28, 0x3d	; 61
     31c:	de b7       	in	r29, 0x3e	; 62
     31e:	c2 5a       	subi	r28, 0xA2	; 162
     320:	d1 09       	sbc	r29, r1
     322:	0f b6       	in	r0, 0x3f	; 63
     324:	f8 94       	cli
     326:	de bf       	out	0x3e, r29	; 62
     328:	0f be       	out	0x3f, r0	; 63
     32a:	cd bf       	out	0x3d, r28	; 61
     32c:	1c 82       	std	Y+4, r1	; 0x04
     32e:	1b 82       	std	Y+3, r1	; 0x03
     330:	1a 82       	std	Y+2, r1	; 0x02
     332:	19 82       	std	Y+1, r1	; 0x01
     334:	80 e0       	ldi	r24, 0x00	; 0
     336:	91 e0       	ldi	r25, 0x01	; 1
     338:	48 d3       	rcall	.+1680   	; 0x9ca <enc28j60Init>
     33a:	80 e0       	ldi	r24, 0x00	; 0
     33c:	90 e0       	ldi	r25, 0x00	; 0
     33e:	a8 ec       	ldi	r26, 0xC8	; 200
     340:	b2 e4       	ldi	r27, 0x42	; 66
     342:	8d 83       	std	Y+5, r24	; 0x05
     344:	9e 83       	std	Y+6, r25	; 0x06
     346:	af 83       	std	Y+7, r26	; 0x07
     348:	b8 87       	std	Y+8, r27	; 0x08
     34a:	20 e0       	ldi	r18, 0x00	; 0
     34c:	30 e0       	ldi	r19, 0x00	; 0
     34e:	4a e7       	ldi	r20, 0x7A	; 122
     350:	55 e4       	ldi	r21, 0x45	; 69
     352:	6d 81       	ldd	r22, Y+5	; 0x05
     354:	7e 81       	ldd	r23, Y+6	; 0x06
     356:	8f 81       	ldd	r24, Y+7	; 0x07
     358:	98 85       	ldd	r25, Y+8	; 0x08
     35a:	0e 94 55 12 	call	0x24aa	; 0x24aa <__mulsf3>
     35e:	dc 01       	movw	r26, r24
     360:	cb 01       	movw	r24, r22
     362:	89 87       	std	Y+9, r24	; 0x09
     364:	9a 87       	std	Y+10, r25	; 0x0a
     366:	ab 87       	std	Y+11, r26	; 0x0b
     368:	bc 87       	std	Y+12, r27	; 0x0c
     36a:	20 e0       	ldi	r18, 0x00	; 0
     36c:	30 e0       	ldi	r19, 0x00	; 0
     36e:	40 e8       	ldi	r20, 0x80	; 128
     370:	5f e3       	ldi	r21, 0x3F	; 63
     372:	69 85       	ldd	r22, Y+9	; 0x09
     374:	7a 85       	ldd	r23, Y+10	; 0x0a
     376:	8b 85       	ldd	r24, Y+11	; 0x0b
     378:	9c 85       	ldd	r25, Y+12	; 0x0c
     37a:	0e 94 d4 11 	call	0x23a8	; 0x23a8 <__cmpsf2>
     37e:	88 23       	and	r24, r24
     380:	2c f4       	brge	.+10     	; 0x38c <main+0x7a>
     382:	81 e0       	ldi	r24, 0x01	; 1
     384:	90 e0       	ldi	r25, 0x00	; 0
     386:	9e 87       	std	Y+14, r25	; 0x0e
     388:	8d 87       	std	Y+13, r24	; 0x0d
     38a:	42 c0       	rjmp	.+132    	; 0x410 <main+0xfe>
     38c:	20 e0       	ldi	r18, 0x00	; 0
     38e:	3f ef       	ldi	r19, 0xFF	; 255
     390:	4f e7       	ldi	r20, 0x7F	; 127
     392:	57 e4       	ldi	r21, 0x47	; 71
     394:	69 85       	ldd	r22, Y+9	; 0x09
     396:	7a 85       	ldd	r23, Y+10	; 0x0a
     398:	8b 85       	ldd	r24, Y+11	; 0x0b
     39a:	9c 85       	ldd	r25, Y+12	; 0x0c
     39c:	0e 94 51 12 	call	0x24a2	; 0x24a2 <__gesf2>
     3a0:	18 16       	cp	r1, r24
     3a2:	64 f5       	brge	.+88     	; 0x3fc <main+0xea>
     3a4:	20 e0       	ldi	r18, 0x00	; 0
     3a6:	30 e0       	ldi	r19, 0x00	; 0
     3a8:	40 e2       	ldi	r20, 0x20	; 32
     3aa:	51 e4       	ldi	r21, 0x41	; 65
     3ac:	6d 81       	ldd	r22, Y+5	; 0x05
     3ae:	7e 81       	ldd	r23, Y+6	; 0x06
     3b0:	8f 81       	ldd	r24, Y+7	; 0x07
     3b2:	98 85       	ldd	r25, Y+8	; 0x08
     3b4:	0e 94 55 12 	call	0x24aa	; 0x24aa <__mulsf3>
     3b8:	dc 01       	movw	r26, r24
     3ba:	cb 01       	movw	r24, r22
     3bc:	bc 01       	movw	r22, r24
     3be:	cd 01       	movw	r24, r26
     3c0:	0e 94 d8 11 	call	0x23b0	; 0x23b0 <__fixunssfsi>
     3c4:	dc 01       	movw	r26, r24
     3c6:	cb 01       	movw	r24, r22
     3c8:	9e 87       	std	Y+14, r25	; 0x0e
     3ca:	8d 87       	std	Y+13, r24	; 0x0d
     3cc:	12 c0       	rjmp	.+36     	; 0x3f2 <main+0xe0>
     3ce:	80 e9       	ldi	r24, 0x90	; 144
     3d0:	91 e0       	ldi	r25, 0x01	; 1
     3d2:	98 8b       	std	Y+16, r25	; 0x10
     3d4:	8f 87       	std	Y+15, r24	; 0x0f
     3d6:	8f 85       	ldd	r24, Y+15	; 0x0f
     3d8:	98 89       	ldd	r25, Y+16	; 0x10
     3da:	8c 01       	movw	r16, r24
     3dc:	c8 01       	movw	r24, r16
     3de:	01 97       	sbiw	r24, 0x01	; 1
     3e0:	f1 f7       	brne	.-4      	; 0x3de <main+0xcc>
     3e2:	8c 01       	movw	r16, r24
     3e4:	18 8b       	std	Y+16, r17	; 0x10
     3e6:	0f 87       	std	Y+15, r16	; 0x0f
     3e8:	8d 85       	ldd	r24, Y+13	; 0x0d
     3ea:	9e 85       	ldd	r25, Y+14	; 0x0e
     3ec:	01 97       	sbiw	r24, 0x01	; 1
     3ee:	9e 87       	std	Y+14, r25	; 0x0e
     3f0:	8d 87       	std	Y+13, r24	; 0x0d
     3f2:	8d 85       	ldd	r24, Y+13	; 0x0d
     3f4:	9e 85       	ldd	r25, Y+14	; 0x0e
     3f6:	00 97       	sbiw	r24, 0x00	; 0
     3f8:	51 f7       	brne	.-44     	; 0x3ce <main+0xbc>
     3fa:	17 c0       	rjmp	.+46     	; 0x42a <main+0x118>
     3fc:	69 85       	ldd	r22, Y+9	; 0x09
     3fe:	7a 85       	ldd	r23, Y+10	; 0x0a
     400:	8b 85       	ldd	r24, Y+11	; 0x0b
     402:	9c 85       	ldd	r25, Y+12	; 0x0c
     404:	0e 94 d8 11 	call	0x23b0	; 0x23b0 <__fixunssfsi>
     408:	dc 01       	movw	r26, r24
     40a:	cb 01       	movw	r24, r22
     40c:	9e 87       	std	Y+14, r25	; 0x0e
     40e:	8d 87       	std	Y+13, r24	; 0x0d
     410:	8d 85       	ldd	r24, Y+13	; 0x0d
     412:	9e 85       	ldd	r25, Y+14	; 0x0e
     414:	9a 8b       	std	Y+18, r25	; 0x12
     416:	89 8b       	std	Y+17, r24	; 0x11
     418:	89 89       	ldd	r24, Y+17	; 0x11
     41a:	9a 89       	ldd	r25, Y+18	; 0x12
     41c:	8c 01       	movw	r16, r24
     41e:	f8 01       	movw	r30, r16
     420:	31 97       	sbiw	r30, 0x01	; 1
     422:	f1 f7       	brne	.-4      	; 0x420 <main+0x10e>
     424:	8f 01       	movw	r16, r30
     426:	1a 8b       	std	Y+18, r17	; 0x12
     428:	09 8b       	std	Y+17, r16	; 0x11
     42a:	66 e7       	ldi	r22, 0x76	; 118
     42c:	74 e0       	ldi	r23, 0x04	; 4
     42e:	84 e1       	ldi	r24, 0x14	; 20
     430:	9c d2       	rcall	.+1336   	; 0x96a <enc28j60PhyWrite>
     432:	80 e0       	ldi	r24, 0x00	; 0
     434:	90 e0       	ldi	r25, 0x00	; 0
     436:	a8 ec       	ldi	r26, 0xC8	; 200
     438:	b2 e4       	ldi	r27, 0x42	; 66
     43a:	8b 8b       	std	Y+19, r24	; 0x13
     43c:	9c 8b       	std	Y+20, r25	; 0x14
     43e:	ad 8b       	std	Y+21, r26	; 0x15
     440:	be 8b       	std	Y+22, r27	; 0x16
     442:	20 e0       	ldi	r18, 0x00	; 0
     444:	30 e0       	ldi	r19, 0x00	; 0
     446:	4a e7       	ldi	r20, 0x7A	; 122
     448:	55 e4       	ldi	r21, 0x45	; 69
     44a:	6b 89       	ldd	r22, Y+19	; 0x13
     44c:	7c 89       	ldd	r23, Y+20	; 0x14
     44e:	8d 89       	ldd	r24, Y+21	; 0x15
     450:	9e 89       	ldd	r25, Y+22	; 0x16
     452:	0e 94 55 12 	call	0x24aa	; 0x24aa <__mulsf3>
     456:	dc 01       	movw	r26, r24
     458:	cb 01       	movw	r24, r22
     45a:	8f 8b       	std	Y+23, r24	; 0x17
     45c:	98 8f       	std	Y+24, r25	; 0x18
     45e:	a9 8f       	std	Y+25, r26	; 0x19
     460:	ba 8f       	std	Y+26, r27	; 0x1a
     462:	20 e0       	ldi	r18, 0x00	; 0
     464:	30 e0       	ldi	r19, 0x00	; 0
     466:	40 e8       	ldi	r20, 0x80	; 128
     468:	5f e3       	ldi	r21, 0x3F	; 63
     46a:	6f 89       	ldd	r22, Y+23	; 0x17
     46c:	78 8d       	ldd	r23, Y+24	; 0x18
     46e:	89 8d       	ldd	r24, Y+25	; 0x19
     470:	9a 8d       	ldd	r25, Y+26	; 0x1a
     472:	0e 94 d4 11 	call	0x23a8	; 0x23a8 <__cmpsf2>
     476:	88 23       	and	r24, r24
     478:	2c f4       	brge	.+10     	; 0x484 <main+0x172>
     47a:	81 e0       	ldi	r24, 0x01	; 1
     47c:	90 e0       	ldi	r25, 0x00	; 0
     47e:	9c 8f       	std	Y+28, r25	; 0x1c
     480:	8b 8f       	std	Y+27, r24	; 0x1b
     482:	42 c0       	rjmp	.+132    	; 0x508 <main+0x1f6>
     484:	20 e0       	ldi	r18, 0x00	; 0
     486:	3f ef       	ldi	r19, 0xFF	; 255
     488:	4f e7       	ldi	r20, 0x7F	; 127
     48a:	57 e4       	ldi	r21, 0x47	; 71
     48c:	6f 89       	ldd	r22, Y+23	; 0x17
     48e:	78 8d       	ldd	r23, Y+24	; 0x18
     490:	89 8d       	ldd	r24, Y+25	; 0x19
     492:	9a 8d       	ldd	r25, Y+26	; 0x1a
     494:	0e 94 51 12 	call	0x24a2	; 0x24a2 <__gesf2>
     498:	18 16       	cp	r1, r24
     49a:	64 f5       	brge	.+88     	; 0x4f4 <main+0x1e2>
     49c:	20 e0       	ldi	r18, 0x00	; 0
     49e:	30 e0       	ldi	r19, 0x00	; 0
     4a0:	40 e2       	ldi	r20, 0x20	; 32
     4a2:	51 e4       	ldi	r21, 0x41	; 65
     4a4:	6b 89       	ldd	r22, Y+19	; 0x13
     4a6:	7c 89       	ldd	r23, Y+20	; 0x14
     4a8:	8d 89       	ldd	r24, Y+21	; 0x15
     4aa:	9e 89       	ldd	r25, Y+22	; 0x16
     4ac:	0e 94 55 12 	call	0x24aa	; 0x24aa <__mulsf3>
     4b0:	dc 01       	movw	r26, r24
     4b2:	cb 01       	movw	r24, r22
     4b4:	bc 01       	movw	r22, r24
     4b6:	cd 01       	movw	r24, r26
     4b8:	0e 94 d8 11 	call	0x23b0	; 0x23b0 <__fixunssfsi>
     4bc:	dc 01       	movw	r26, r24
     4be:	cb 01       	movw	r24, r22
     4c0:	9c 8f       	std	Y+28, r25	; 0x1c
     4c2:	8b 8f       	std	Y+27, r24	; 0x1b
     4c4:	12 c0       	rjmp	.+36     	; 0x4ea <main+0x1d8>
     4c6:	80 e9       	ldi	r24, 0x90	; 144
     4c8:	91 e0       	ldi	r25, 0x01	; 1
     4ca:	9e 8f       	std	Y+30, r25	; 0x1e
     4cc:	8d 8f       	std	Y+29, r24	; 0x1d
     4ce:	8d 8d       	ldd	r24, Y+29	; 0x1d
     4d0:	9e 8d       	ldd	r25, Y+30	; 0x1e
     4d2:	8c 01       	movw	r16, r24
     4d4:	c8 01       	movw	r24, r16
     4d6:	01 97       	sbiw	r24, 0x01	; 1
     4d8:	f1 f7       	brne	.-4      	; 0x4d6 <main+0x1c4>
     4da:	8c 01       	movw	r16, r24
     4dc:	1e 8f       	std	Y+30, r17	; 0x1e
     4de:	0d 8f       	std	Y+29, r16	; 0x1d
     4e0:	8b 8d       	ldd	r24, Y+27	; 0x1b
     4e2:	9c 8d       	ldd	r25, Y+28	; 0x1c
     4e4:	01 97       	sbiw	r24, 0x01	; 1
     4e6:	9c 8f       	std	Y+28, r25	; 0x1c
     4e8:	8b 8f       	std	Y+27, r24	; 0x1b
     4ea:	8b 8d       	ldd	r24, Y+27	; 0x1b
     4ec:	9c 8d       	ldd	r25, Y+28	; 0x1c
     4ee:	00 97       	sbiw	r24, 0x00	; 0
     4f0:	51 f7       	brne	.-44     	; 0x4c6 <main+0x1b4>
     4f2:	17 c0       	rjmp	.+46     	; 0x522 <main+0x210>
     4f4:	6f 89       	ldd	r22, Y+23	; 0x17
     4f6:	78 8d       	ldd	r23, Y+24	; 0x18
     4f8:	89 8d       	ldd	r24, Y+25	; 0x19
     4fa:	9a 8d       	ldd	r25, Y+26	; 0x1a
     4fc:	0e 94 d8 11 	call	0x23b0	; 0x23b0 <__fixunssfsi>
     500:	dc 01       	movw	r26, r24
     502:	cb 01       	movw	r24, r22
     504:	9c 8f       	std	Y+28, r25	; 0x1c
     506:	8b 8f       	std	Y+27, r24	; 0x1b
     508:	8b 8d       	ldd	r24, Y+27	; 0x1b
     50a:	9c 8d       	ldd	r25, Y+28	; 0x1c
     50c:	98 a3       	std	Y+32, r25	; 0x20
     50e:	8f 8f       	std	Y+31, r24	; 0x1f
     510:	8f 8d       	ldd	r24, Y+31	; 0x1f
     512:	98 a1       	ldd	r25, Y+32	; 0x20
     514:	8c 01       	movw	r16, r24
     516:	f8 01       	movw	r30, r16
     518:	31 97       	sbiw	r30, 0x01	; 1
     51a:	f1 f7       	brne	.-4      	; 0x518 <main+0x206>
     51c:	8f 01       	movw	r16, r30
     51e:	18 a3       	std	Y+32, r17	; 0x20
     520:	0f 8f       	std	Y+31, r16	; 0x1f
     522:	66 e0       	ldi	r22, 0x06	; 6
     524:	71 e0       	ldi	r23, 0x01	; 1
     526:	80 e0       	ldi	r24, 0x00	; 0
     528:	91 e0       	ldi	r25, 0x01	; 1
     52a:	0e 94 50 0c 	call	0x18a0	; 0x18a0 <init_udp_or_www_server>
     52e:	80 e5       	ldi	r24, 0x50	; 80
     530:	90 e0       	ldi	r25, 0x00	; 0
     532:	0e 94 86 0c 	call	0x190c	; 0x190c <www_server_port>
     536:	84 e7       	ldi	r24, 0x74	; 116
     538:	91 e0       	ldi	r25, 0x01	; 1
     53a:	0e 94 4f 0d 	call	0x1a9e	; 0x1a9e <register_ping_rec_callback>
     53e:	64 e1       	ldi	r22, 0x14	; 20
     540:	71 e0       	ldi	r23, 0x01	; 1
     542:	84 ef       	ldi	r24, 0xF4	; 244
     544:	91 e0       	ldi	r25, 0x01	; 1
     546:	79 d3       	rcall	.+1778   	; 0xc3a <enc28j60PacketReceive>
     548:	bc 01       	movw	r22, r24
     54a:	84 e1       	ldi	r24, 0x14	; 20
     54c:	91 e0       	ldi	r25, 0x01	; 1
     54e:	0e 94 61 0d 	call	0x1ac2	; 0x1ac2 <packetloop_arp_icmp_tcp>
     552:	9a 83       	std	Y+2, r25	; 0x02
     554:	89 83       	std	Y+1, r24	; 0x01
     556:	89 81       	ldd	r24, Y+1	; 0x01
     558:	9a 81       	ldd	r25, Y+2	; 0x02
     55a:	00 97       	sbiw	r24, 0x00	; 0
     55c:	09 f4       	brne	.+2      	; 0x560 <main+0x24e>
     55e:	8f c0       	rjmp	.+286    	; 0x67e <main+0x36c>
     560:	89 81       	ldd	r24, Y+1	; 0x01
     562:	9a 81       	ldd	r25, Y+2	; 0x02
     564:	8c 5e       	subi	r24, 0xEC	; 236
     566:	9e 4f       	sbci	r25, 0xFE	; 254
     568:	44 e0       	ldi	r20, 0x04	; 4
     56a:	50 e0       	ldi	r21, 0x00	; 0
     56c:	bc 01       	movw	r22, r24
     56e:	8c e0       	ldi	r24, 0x0C	; 12
     570:	91 e0       	ldi	r25, 0x01	; 1
     572:	0e 94 cc 13 	call	0x2798	; 0x2798 <strncmp>
     576:	00 97       	sbiw	r24, 0x00	; 0
     578:	b1 f0       	breq	.+44     	; 0x5a6 <main+0x294>
     57a:	4c e8       	ldi	r20, 0x8C	; 140
     57c:	50 e0       	ldi	r21, 0x00	; 0
     57e:	60 e0       	ldi	r22, 0x00	; 0
     580:	70 e0       	ldi	r23, 0x00	; 0
     582:	84 e1       	ldi	r24, 0x14	; 20
     584:	91 e0       	ldi	r25, 0x01	; 1
     586:	0e 94 e1 0a 	call	0x15c2	; 0x15c2 <fill_tcp_data_p>
     58a:	9a 83       	std	Y+2, r25	; 0x02
     58c:	89 83       	std	Y+1, r24	; 0x01
     58e:	89 81       	ldd	r24, Y+1	; 0x01
     590:	9a 81       	ldd	r25, Y+2	; 0x02
     592:	4b ec       	ldi	r20, 0xCB	; 203
     594:	50 e0       	ldi	r21, 0x00	; 0
     596:	bc 01       	movw	r22, r24
     598:	84 e1       	ldi	r24, 0x14	; 20
     59a:	91 e0       	ldi	r25, 0x01	; 1
     59c:	0e 94 e1 0a 	call	0x15c2	; 0x15c2 <fill_tcp_data_p>
     5a0:	9a 83       	std	Y+2, r25	; 0x02
     5a2:	89 83       	std	Y+1, r24	; 0x01
     5a4:	64 c0       	rjmp	.+200    	; 0x66e <main+0x35c>
     5a6:	89 81       	ldd	r24, Y+1	; 0x01
     5a8:	9a 81       	ldd	r25, Y+2	; 0x02
     5aa:	04 96       	adiw	r24, 0x04	; 4
     5ac:	8c 5e       	subi	r24, 0xEC	; 236
     5ae:	9e 4f       	sbci	r25, 0xFE	; 254
     5b0:	42 e0       	ldi	r20, 0x02	; 2
     5b2:	50 e0       	ldi	r21, 0x00	; 0
     5b4:	bc 01       	movw	r22, r24
     5b6:	81 e1       	ldi	r24, 0x11	; 17
     5b8:	91 e0       	ldi	r25, 0x01	; 1
     5ba:	0e 94 cc 13 	call	0x2798	; 0x2798 <strncmp>
     5be:	00 97       	sbiw	r24, 0x00	; 0
     5c0:	09 f0       	breq	.+2      	; 0x5c4 <main+0x2b2>
     5c2:	4c c0       	rjmp	.+152    	; 0x65c <main+0x34a>
     5c4:	80 91 0b 03 	lds	r24, 0x030B
     5c8:	90 91 0c 03 	lds	r25, 0x030C
     5cc:	01 96       	adiw	r24, 0x01	; 1
     5ce:	90 93 0c 03 	sts	0x030C, r25
     5d2:	80 93 0b 03 	sts	0x030B, r24
     5d6:	4c e8       	ldi	r20, 0x8C	; 140
     5d8:	50 e0       	ldi	r21, 0x00	; 0
     5da:	60 e0       	ldi	r22, 0x00	; 0
     5dc:	70 e0       	ldi	r23, 0x00	; 0
     5de:	84 e1       	ldi	r24, 0x14	; 20
     5e0:	91 e0       	ldi	r25, 0x01	; 1
     5e2:	ef d7       	rcall	.+4062   	; 0x15c2 <fill_tcp_data_p>
     5e4:	9a 83       	std	Y+2, r25	; 0x02
     5e6:	89 83       	std	Y+1, r24	; 0x01
     5e8:	22 e8       	ldi	r18, 0x82	; 130
     5ea:	ce 01       	movw	r24, r28
     5ec:	81 96       	adiw	r24, 0x21	; 33
     5ee:	fc 01       	movw	r30, r24
     5f0:	32 2f       	mov	r19, r18
     5f2:	11 92       	st	Z+, r1
     5f4:	3a 95       	dec	r19
     5f6:	e9 f7       	brne	.-6      	; 0x5f2 <main+0x2e0>
     5f8:	20 91 09 03 	lds	r18, 0x0309
     5fc:	30 91 0a 03 	lds	r19, 0x030A
     600:	80 91 0b 03 	lds	r24, 0x030B
     604:	90 91 0c 03 	lds	r25, 0x030C
     608:	43 2f       	mov	r20, r19
     60a:	4f 93       	push	r20
     60c:	2f 93       	push	r18
     60e:	29 2f       	mov	r18, r25
     610:	2f 93       	push	r18
     612:	8f 93       	push	r24
     614:	8b ed       	ldi	r24, 0xDB	; 219
     616:	90 e0       	ldi	r25, 0x00	; 0
     618:	89 2f       	mov	r24, r25
     61a:	8f 93       	push	r24
     61c:	8b ed       	ldi	r24, 0xDB	; 219
     61e:	90 e0       	ldi	r25, 0x00	; 0
     620:	8f 93       	push	r24
     622:	ce 01       	movw	r24, r28
     624:	81 96       	adiw	r24, 0x21	; 33
     626:	29 2f       	mov	r18, r25
     628:	2f 93       	push	r18
     62a:	8f 93       	push	r24
     62c:	0e 94 11 14 	call	0x2822	; 0x2822 <sprintf>
     630:	8d b7       	in	r24, 0x3d	; 61
     632:	9e b7       	in	r25, 0x3e	; 62
     634:	08 96       	adiw	r24, 0x08	; 8
     636:	0f b6       	in	r0, 0x3f	; 63
     638:	f8 94       	cli
     63a:	de bf       	out	0x3e, r29	; 62
     63c:	0f be       	out	0x3f, r0	; 63
     63e:	cd bf       	out	0x3d, r28	; 61
     640:	9e 01       	movw	r18, r28
     642:	2f 5d       	subi	r18, 0xDF	; 223
     644:	3f 4f       	sbci	r19, 0xFF	; 255
     646:	89 81       	ldd	r24, Y+1	; 0x01
     648:	9a 81       	ldd	r25, Y+2	; 0x02
     64a:	a9 01       	movw	r20, r18
     64c:	bc 01       	movw	r22, r24
     64e:	84 e1       	ldi	r24, 0x14	; 20
     650:	91 e0       	ldi	r25, 0x01	; 1
     652:	0e 94 5b 0b 	call	0x16b6	; 0x16b6 <fill_tcp_data>
     656:	9a 83       	std	Y+2, r25	; 0x02
     658:	89 83       	std	Y+1, r24	; 0x01
     65a:	09 c0       	rjmp	.+18     	; 0x66e <main+0x35c>
     65c:	47 e5       	ldi	r20, 0x57	; 87
     65e:	51 e0       	ldi	r21, 0x01	; 1
     660:	60 e0       	ldi	r22, 0x00	; 0
     662:	70 e0       	ldi	r23, 0x00	; 0
     664:	84 e1       	ldi	r24, 0x14	; 20
     666:	91 e0       	ldi	r25, 0x01	; 1
     668:	ac d7       	rcall	.+3928   	; 0x15c2 <fill_tcp_data_p>
     66a:	9a 83       	std	Y+2, r25	; 0x02
     66c:	89 83       	std	Y+1, r24	; 0x01
     66e:	89 81       	ldd	r24, Y+1	; 0x01
     670:	9a 81       	ldd	r25, Y+2	; 0x02
     672:	bc 01       	movw	r22, r24
     674:	84 e1       	ldi	r24, 0x14	; 20
     676:	91 e0       	ldi	r25, 0x01	; 1
     678:	0e 94 28 0d 	call	0x1a50	; 0x1a50 <www_server_reply>
     67c:	60 cf       	rjmp	.-320    	; 0x53e <main+0x22c>
     67e:	00 00       	nop
     680:	5e cf       	rjmp	.-324    	; 0x53e <main+0x22c>

00000682 <enc28j60ReadOp>:
     682:	cf 93       	push	r28
     684:	df 93       	push	r29
     686:	00 d0       	rcall	.+0      	; 0x688 <enc28j60ReadOp+0x6>
     688:	cd b7       	in	r28, 0x3d	; 61
     68a:	de b7       	in	r29, 0x3e	; 62
     68c:	89 83       	std	Y+1, r24	; 0x01
     68e:	6a 83       	std	Y+2, r22	; 0x02
     690:	85 e2       	ldi	r24, 0x25	; 37
     692:	90 e0       	ldi	r25, 0x00	; 0
     694:	25 e2       	ldi	r18, 0x25	; 37
     696:	30 e0       	ldi	r19, 0x00	; 0
     698:	f9 01       	movw	r30, r18
     69a:	20 81       	ld	r18, Z
     69c:	2f 7e       	andi	r18, 0xEF	; 239
     69e:	fc 01       	movw	r30, r24
     6a0:	20 83       	st	Z, r18
     6a2:	8e e4       	ldi	r24, 0x4E	; 78
     6a4:	90 e0       	ldi	r25, 0x00	; 0
     6a6:	2a 81       	ldd	r18, Y+2	; 0x02
     6a8:	32 2f       	mov	r19, r18
     6aa:	3f 71       	andi	r19, 0x1F	; 31
     6ac:	29 81       	ldd	r18, Y+1	; 0x01
     6ae:	23 2b       	or	r18, r19
     6b0:	fc 01       	movw	r30, r24
     6b2:	20 83       	st	Z, r18
     6b4:	8d e4       	ldi	r24, 0x4D	; 77
     6b6:	90 e0       	ldi	r25, 0x00	; 0
     6b8:	fc 01       	movw	r30, r24
     6ba:	80 81       	ld	r24, Z
     6bc:	88 23       	and	r24, r24
     6be:	d4 f7       	brge	.-12     	; 0x6b4 <enc28j60ReadOp+0x32>
     6c0:	8e e4       	ldi	r24, 0x4E	; 78
     6c2:	90 e0       	ldi	r25, 0x00	; 0
     6c4:	fc 01       	movw	r30, r24
     6c6:	10 82       	st	Z, r1
     6c8:	8d e4       	ldi	r24, 0x4D	; 77
     6ca:	90 e0       	ldi	r25, 0x00	; 0
     6cc:	fc 01       	movw	r30, r24
     6ce:	80 81       	ld	r24, Z
     6d0:	88 23       	and	r24, r24
     6d2:	d4 f7       	brge	.-12     	; 0x6c8 <enc28j60ReadOp+0x46>
     6d4:	8a 81       	ldd	r24, Y+2	; 0x02
     6d6:	88 23       	and	r24, r24
     6d8:	54 f4       	brge	.+20     	; 0x6ee <enc28j60ReadOp+0x6c>
     6da:	8e e4       	ldi	r24, 0x4E	; 78
     6dc:	90 e0       	ldi	r25, 0x00	; 0
     6de:	fc 01       	movw	r30, r24
     6e0:	10 82       	st	Z, r1
     6e2:	8d e4       	ldi	r24, 0x4D	; 77
     6e4:	90 e0       	ldi	r25, 0x00	; 0
     6e6:	fc 01       	movw	r30, r24
     6e8:	80 81       	ld	r24, Z
     6ea:	88 23       	and	r24, r24
     6ec:	d4 f7       	brge	.-12     	; 0x6e2 <enc28j60ReadOp+0x60>
     6ee:	85 e2       	ldi	r24, 0x25	; 37
     6f0:	90 e0       	ldi	r25, 0x00	; 0
     6f2:	25 e2       	ldi	r18, 0x25	; 37
     6f4:	30 e0       	ldi	r19, 0x00	; 0
     6f6:	f9 01       	movw	r30, r18
     6f8:	20 81       	ld	r18, Z
     6fa:	20 61       	ori	r18, 0x10	; 16
     6fc:	fc 01       	movw	r30, r24
     6fe:	20 83       	st	Z, r18
     700:	8e e4       	ldi	r24, 0x4E	; 78
     702:	90 e0       	ldi	r25, 0x00	; 0
     704:	fc 01       	movw	r30, r24
     706:	80 81       	ld	r24, Z
     708:	0f 90       	pop	r0
     70a:	0f 90       	pop	r0
     70c:	df 91       	pop	r29
     70e:	cf 91       	pop	r28
     710:	08 95       	ret

00000712 <enc28j60WriteOp>:
     712:	cf 93       	push	r28
     714:	df 93       	push	r29
     716:	00 d0       	rcall	.+0      	; 0x718 <enc28j60WriteOp+0x6>
     718:	1f 92       	push	r1
     71a:	cd b7       	in	r28, 0x3d	; 61
     71c:	de b7       	in	r29, 0x3e	; 62
     71e:	89 83       	std	Y+1, r24	; 0x01
     720:	6a 83       	std	Y+2, r22	; 0x02
     722:	4b 83       	std	Y+3, r20	; 0x03
     724:	85 e2       	ldi	r24, 0x25	; 37
     726:	90 e0       	ldi	r25, 0x00	; 0
     728:	25 e2       	ldi	r18, 0x25	; 37
     72a:	30 e0       	ldi	r19, 0x00	; 0
     72c:	f9 01       	movw	r30, r18
     72e:	20 81       	ld	r18, Z
     730:	2f 7e       	andi	r18, 0xEF	; 239
     732:	fc 01       	movw	r30, r24
     734:	20 83       	st	Z, r18
     736:	8e e4       	ldi	r24, 0x4E	; 78
     738:	90 e0       	ldi	r25, 0x00	; 0
     73a:	2a 81       	ldd	r18, Y+2	; 0x02
     73c:	32 2f       	mov	r19, r18
     73e:	3f 71       	andi	r19, 0x1F	; 31
     740:	29 81       	ldd	r18, Y+1	; 0x01
     742:	23 2b       	or	r18, r19
     744:	fc 01       	movw	r30, r24
     746:	20 83       	st	Z, r18
     748:	8d e4       	ldi	r24, 0x4D	; 77
     74a:	90 e0       	ldi	r25, 0x00	; 0
     74c:	fc 01       	movw	r30, r24
     74e:	80 81       	ld	r24, Z
     750:	88 23       	and	r24, r24
     752:	d4 f7       	brge	.-12     	; 0x748 <enc28j60WriteOp+0x36>
     754:	8e e4       	ldi	r24, 0x4E	; 78
     756:	90 e0       	ldi	r25, 0x00	; 0
     758:	2b 81       	ldd	r18, Y+3	; 0x03
     75a:	fc 01       	movw	r30, r24
     75c:	20 83       	st	Z, r18
     75e:	8d e4       	ldi	r24, 0x4D	; 77
     760:	90 e0       	ldi	r25, 0x00	; 0
     762:	fc 01       	movw	r30, r24
     764:	80 81       	ld	r24, Z
     766:	88 23       	and	r24, r24
     768:	d4 f7       	brge	.-12     	; 0x75e <enc28j60WriteOp+0x4c>
     76a:	85 e2       	ldi	r24, 0x25	; 37
     76c:	90 e0       	ldi	r25, 0x00	; 0
     76e:	25 e2       	ldi	r18, 0x25	; 37
     770:	30 e0       	ldi	r19, 0x00	; 0
     772:	f9 01       	movw	r30, r18
     774:	20 81       	ld	r18, Z
     776:	20 61       	ori	r18, 0x10	; 16
     778:	fc 01       	movw	r30, r24
     77a:	20 83       	st	Z, r18
     77c:	0f 90       	pop	r0
     77e:	0f 90       	pop	r0
     780:	0f 90       	pop	r0
     782:	df 91       	pop	r29
     784:	cf 91       	pop	r28
     786:	08 95       	ret

00000788 <enc28j60ReadBuffer>:
     788:	cf 93       	push	r28
     78a:	df 93       	push	r29
     78c:	00 d0       	rcall	.+0      	; 0x78e <enc28j60ReadBuffer+0x6>
     78e:	00 d0       	rcall	.+0      	; 0x790 <enc28j60ReadBuffer+0x8>
     790:	cd b7       	in	r28, 0x3d	; 61
     792:	de b7       	in	r29, 0x3e	; 62
     794:	9a 83       	std	Y+2, r25	; 0x02
     796:	89 83       	std	Y+1, r24	; 0x01
     798:	7c 83       	std	Y+4, r23	; 0x04
     79a:	6b 83       	std	Y+3, r22	; 0x03
     79c:	85 e2       	ldi	r24, 0x25	; 37
     79e:	90 e0       	ldi	r25, 0x00	; 0
     7a0:	25 e2       	ldi	r18, 0x25	; 37
     7a2:	30 e0       	ldi	r19, 0x00	; 0
     7a4:	f9 01       	movw	r30, r18
     7a6:	20 81       	ld	r18, Z
     7a8:	2f 7e       	andi	r18, 0xEF	; 239
     7aa:	fc 01       	movw	r30, r24
     7ac:	20 83       	st	Z, r18
     7ae:	8e e4       	ldi	r24, 0x4E	; 78
     7b0:	90 e0       	ldi	r25, 0x00	; 0
     7b2:	2a e3       	ldi	r18, 0x3A	; 58
     7b4:	fc 01       	movw	r30, r24
     7b6:	20 83       	st	Z, r18
     7b8:	8d e4       	ldi	r24, 0x4D	; 77
     7ba:	90 e0       	ldi	r25, 0x00	; 0
     7bc:	fc 01       	movw	r30, r24
     7be:	80 81       	ld	r24, Z
     7c0:	88 23       	and	r24, r24
     7c2:	d4 f7       	brge	.-12     	; 0x7b8 <enc28j60ReadBuffer+0x30>
     7c4:	1c c0       	rjmp	.+56     	; 0x7fe <enc28j60ReadBuffer+0x76>
     7c6:	89 81       	ldd	r24, Y+1	; 0x01
     7c8:	9a 81       	ldd	r25, Y+2	; 0x02
     7ca:	01 97       	sbiw	r24, 0x01	; 1
     7cc:	9a 83       	std	Y+2, r25	; 0x02
     7ce:	89 83       	std	Y+1, r24	; 0x01
     7d0:	8e e4       	ldi	r24, 0x4E	; 78
     7d2:	90 e0       	ldi	r25, 0x00	; 0
     7d4:	fc 01       	movw	r30, r24
     7d6:	10 82       	st	Z, r1
     7d8:	8d e4       	ldi	r24, 0x4D	; 77
     7da:	90 e0       	ldi	r25, 0x00	; 0
     7dc:	fc 01       	movw	r30, r24
     7de:	80 81       	ld	r24, Z
     7e0:	88 23       	and	r24, r24
     7e2:	d4 f7       	brge	.-12     	; 0x7d8 <enc28j60ReadBuffer+0x50>
     7e4:	8e e4       	ldi	r24, 0x4E	; 78
     7e6:	90 e0       	ldi	r25, 0x00	; 0
     7e8:	fc 01       	movw	r30, r24
     7ea:	20 81       	ld	r18, Z
     7ec:	8b 81       	ldd	r24, Y+3	; 0x03
     7ee:	9c 81       	ldd	r25, Y+4	; 0x04
     7f0:	fc 01       	movw	r30, r24
     7f2:	20 83       	st	Z, r18
     7f4:	8b 81       	ldd	r24, Y+3	; 0x03
     7f6:	9c 81       	ldd	r25, Y+4	; 0x04
     7f8:	01 96       	adiw	r24, 0x01	; 1
     7fa:	9c 83       	std	Y+4, r25	; 0x04
     7fc:	8b 83       	std	Y+3, r24	; 0x03
     7fe:	89 81       	ldd	r24, Y+1	; 0x01
     800:	9a 81       	ldd	r25, Y+2	; 0x02
     802:	00 97       	sbiw	r24, 0x00	; 0
     804:	01 f7       	brne	.-64     	; 0x7c6 <enc28j60ReadBuffer+0x3e>
     806:	8b 81       	ldd	r24, Y+3	; 0x03
     808:	9c 81       	ldd	r25, Y+4	; 0x04
     80a:	fc 01       	movw	r30, r24
     80c:	10 82       	st	Z, r1
     80e:	85 e2       	ldi	r24, 0x25	; 37
     810:	90 e0       	ldi	r25, 0x00	; 0
     812:	25 e2       	ldi	r18, 0x25	; 37
     814:	30 e0       	ldi	r19, 0x00	; 0
     816:	f9 01       	movw	r30, r18
     818:	20 81       	ld	r18, Z
     81a:	20 61       	ori	r18, 0x10	; 16
     81c:	fc 01       	movw	r30, r24
     81e:	20 83       	st	Z, r18
     820:	0f 90       	pop	r0
     822:	0f 90       	pop	r0
     824:	0f 90       	pop	r0
     826:	0f 90       	pop	r0
     828:	df 91       	pop	r29
     82a:	cf 91       	pop	r28
     82c:	08 95       	ret

0000082e <enc28j60WriteBuffer>:
     82e:	cf 93       	push	r28
     830:	df 93       	push	r29
     832:	00 d0       	rcall	.+0      	; 0x834 <enc28j60WriteBuffer+0x6>
     834:	00 d0       	rcall	.+0      	; 0x836 <enc28j60WriteBuffer+0x8>
     836:	cd b7       	in	r28, 0x3d	; 61
     838:	de b7       	in	r29, 0x3e	; 62
     83a:	9a 83       	std	Y+2, r25	; 0x02
     83c:	89 83       	std	Y+1, r24	; 0x01
     83e:	7c 83       	std	Y+4, r23	; 0x04
     840:	6b 83       	std	Y+3, r22	; 0x03
     842:	85 e2       	ldi	r24, 0x25	; 37
     844:	90 e0       	ldi	r25, 0x00	; 0
     846:	25 e2       	ldi	r18, 0x25	; 37
     848:	30 e0       	ldi	r19, 0x00	; 0
     84a:	f9 01       	movw	r30, r18
     84c:	20 81       	ld	r18, Z
     84e:	2f 7e       	andi	r18, 0xEF	; 239
     850:	fc 01       	movw	r30, r24
     852:	20 83       	st	Z, r18
     854:	8e e4       	ldi	r24, 0x4E	; 78
     856:	90 e0       	ldi	r25, 0x00	; 0
     858:	2a e7       	ldi	r18, 0x7A	; 122
     85a:	fc 01       	movw	r30, r24
     85c:	20 83       	st	Z, r18
     85e:	8d e4       	ldi	r24, 0x4D	; 77
     860:	90 e0       	ldi	r25, 0x00	; 0
     862:	fc 01       	movw	r30, r24
     864:	80 81       	ld	r24, Z
     866:	88 23       	and	r24, r24
     868:	d4 f7       	brge	.-12     	; 0x85e <enc28j60WriteBuffer+0x30>
     86a:	18 c0       	rjmp	.+48     	; 0x89c <enc28j60WriteBuffer+0x6e>
     86c:	89 81       	ldd	r24, Y+1	; 0x01
     86e:	9a 81       	ldd	r25, Y+2	; 0x02
     870:	01 97       	sbiw	r24, 0x01	; 1
     872:	9a 83       	std	Y+2, r25	; 0x02
     874:	89 83       	std	Y+1, r24	; 0x01
     876:	8e e4       	ldi	r24, 0x4E	; 78
     878:	90 e0       	ldi	r25, 0x00	; 0
     87a:	2b 81       	ldd	r18, Y+3	; 0x03
     87c:	3c 81       	ldd	r19, Y+4	; 0x04
     87e:	f9 01       	movw	r30, r18
     880:	20 81       	ld	r18, Z
     882:	fc 01       	movw	r30, r24
     884:	20 83       	st	Z, r18
     886:	8b 81       	ldd	r24, Y+3	; 0x03
     888:	9c 81       	ldd	r25, Y+4	; 0x04
     88a:	01 96       	adiw	r24, 0x01	; 1
     88c:	9c 83       	std	Y+4, r25	; 0x04
     88e:	8b 83       	std	Y+3, r24	; 0x03
     890:	8d e4       	ldi	r24, 0x4D	; 77
     892:	90 e0       	ldi	r25, 0x00	; 0
     894:	fc 01       	movw	r30, r24
     896:	80 81       	ld	r24, Z
     898:	88 23       	and	r24, r24
     89a:	d4 f7       	brge	.-12     	; 0x890 <enc28j60WriteBuffer+0x62>
     89c:	89 81       	ldd	r24, Y+1	; 0x01
     89e:	9a 81       	ldd	r25, Y+2	; 0x02
     8a0:	00 97       	sbiw	r24, 0x00	; 0
     8a2:	21 f7       	brne	.-56     	; 0x86c <enc28j60WriteBuffer+0x3e>
     8a4:	85 e2       	ldi	r24, 0x25	; 37
     8a6:	90 e0       	ldi	r25, 0x00	; 0
     8a8:	25 e2       	ldi	r18, 0x25	; 37
     8aa:	30 e0       	ldi	r19, 0x00	; 0
     8ac:	f9 01       	movw	r30, r18
     8ae:	20 81       	ld	r18, Z
     8b0:	20 61       	ori	r18, 0x10	; 16
     8b2:	fc 01       	movw	r30, r24
     8b4:	20 83       	st	Z, r18
     8b6:	0f 90       	pop	r0
     8b8:	0f 90       	pop	r0
     8ba:	0f 90       	pop	r0
     8bc:	0f 90       	pop	r0
     8be:	df 91       	pop	r29
     8c0:	cf 91       	pop	r28
     8c2:	08 95       	ret

000008c4 <enc28j60SetBank>:
     8c4:	cf 93       	push	r28
     8c6:	df 93       	push	r29
     8c8:	1f 92       	push	r1
     8ca:	cd b7       	in	r28, 0x3d	; 61
     8cc:	de b7       	in	r29, 0x3e	; 62
     8ce:	89 83       	std	Y+1, r24	; 0x01
     8d0:	89 81       	ldd	r24, Y+1	; 0x01
     8d2:	88 2f       	mov	r24, r24
     8d4:	90 e0       	ldi	r25, 0x00	; 0
     8d6:	9c 01       	movw	r18, r24
     8d8:	20 76       	andi	r18, 0x60	; 96
     8da:	33 27       	eor	r19, r19
     8dc:	80 91 0d 03 	lds	r24, 0x030D
     8e0:	88 2f       	mov	r24, r24
     8e2:	90 e0       	ldi	r25, 0x00	; 0
     8e4:	28 17       	cp	r18, r24
     8e6:	39 07       	cpc	r19, r25
     8e8:	d9 f0       	breq	.+54     	; 0x920 <enc28j60SetBank+0x5c>
     8ea:	43 e0       	ldi	r20, 0x03	; 3
     8ec:	6f e1       	ldi	r22, 0x1F	; 31
     8ee:	80 ea       	ldi	r24, 0xA0	; 160
     8f0:	10 df       	rcall	.-480    	; 0x712 <enc28j60WriteOp>
     8f2:	89 81       	ldd	r24, Y+1	; 0x01
     8f4:	88 2f       	mov	r24, r24
     8f6:	90 e0       	ldi	r25, 0x00	; 0
     8f8:	80 76       	andi	r24, 0x60	; 96
     8fa:	99 27       	eor	r25, r25
     8fc:	95 95       	asr	r25
     8fe:	87 95       	ror	r24
     900:	95 95       	asr	r25
     902:	87 95       	ror	r24
     904:	95 95       	asr	r25
     906:	87 95       	ror	r24
     908:	95 95       	asr	r25
     90a:	87 95       	ror	r24
     90c:	95 95       	asr	r25
     90e:	87 95       	ror	r24
     910:	48 2f       	mov	r20, r24
     912:	6f e1       	ldi	r22, 0x1F	; 31
     914:	80 e8       	ldi	r24, 0x80	; 128
     916:	fd de       	rcall	.-518    	; 0x712 <enc28j60WriteOp>
     918:	89 81       	ldd	r24, Y+1	; 0x01
     91a:	80 76       	andi	r24, 0x60	; 96
     91c:	80 93 0d 03 	sts	0x030D, r24
     920:	0f 90       	pop	r0
     922:	df 91       	pop	r29
     924:	cf 91       	pop	r28
     926:	08 95       	ret

00000928 <enc28j60Read>:
     928:	cf 93       	push	r28
     92a:	df 93       	push	r29
     92c:	1f 92       	push	r1
     92e:	cd b7       	in	r28, 0x3d	; 61
     930:	de b7       	in	r29, 0x3e	; 62
     932:	89 83       	std	Y+1, r24	; 0x01
     934:	89 81       	ldd	r24, Y+1	; 0x01
     936:	c6 df       	rcall	.-116    	; 0x8c4 <enc28j60SetBank>
     938:	69 81       	ldd	r22, Y+1	; 0x01
     93a:	80 e0       	ldi	r24, 0x00	; 0
     93c:	a2 de       	rcall	.-700    	; 0x682 <enc28j60ReadOp>
     93e:	0f 90       	pop	r0
     940:	df 91       	pop	r29
     942:	cf 91       	pop	r28
     944:	08 95       	ret

00000946 <enc28j60Write>:
     946:	cf 93       	push	r28
     948:	df 93       	push	r29
     94a:	00 d0       	rcall	.+0      	; 0x94c <enc28j60Write+0x6>
     94c:	cd b7       	in	r28, 0x3d	; 61
     94e:	de b7       	in	r29, 0x3e	; 62
     950:	89 83       	std	Y+1, r24	; 0x01
     952:	6a 83       	std	Y+2, r22	; 0x02
     954:	89 81       	ldd	r24, Y+1	; 0x01
     956:	b6 df       	rcall	.-148    	; 0x8c4 <enc28j60SetBank>
     958:	4a 81       	ldd	r20, Y+2	; 0x02
     95a:	69 81       	ldd	r22, Y+1	; 0x01
     95c:	80 e4       	ldi	r24, 0x40	; 64
     95e:	d9 de       	rcall	.-590    	; 0x712 <enc28j60WriteOp>
     960:	0f 90       	pop	r0
     962:	0f 90       	pop	r0
     964:	df 91       	pop	r29
     966:	cf 91       	pop	r28
     968:	08 95       	ret

0000096a <enc28j60PhyWrite>:
     96a:	1f 93       	push	r17
     96c:	cf 93       	push	r28
     96e:	df 93       	push	r29
     970:	00 d0       	rcall	.+0      	; 0x972 <enc28j60PhyWrite+0x8>
     972:	00 d0       	rcall	.+0      	; 0x974 <enc28j60PhyWrite+0xa>
     974:	cd b7       	in	r28, 0x3d	; 61
     976:	de b7       	in	r29, 0x3e	; 62
     978:	8a 83       	std	Y+2, r24	; 0x02
     97a:	7c 83       	std	Y+4, r23	; 0x04
     97c:	6b 83       	std	Y+3, r22	; 0x03
     97e:	6a 81       	ldd	r22, Y+2	; 0x02
     980:	84 ed       	ldi	r24, 0xD4	; 212
     982:	e1 df       	rcall	.-62     	; 0x946 <enc28j60Write>
     984:	8b 81       	ldd	r24, Y+3	; 0x03
     986:	68 2f       	mov	r22, r24
     988:	86 ed       	ldi	r24, 0xD6	; 214
     98a:	dd df       	rcall	.-70     	; 0x946 <enc28j60Write>
     98c:	8b 81       	ldd	r24, Y+3	; 0x03
     98e:	9c 81       	ldd	r25, Y+4	; 0x04
     990:	89 2f       	mov	r24, r25
     992:	99 27       	eor	r25, r25
     994:	68 2f       	mov	r22, r24
     996:	87 ed       	ldi	r24, 0xD7	; 215
     998:	d6 df       	rcall	.-84     	; 0x946 <enc28j60Write>
     99a:	07 c0       	rjmp	.+14     	; 0x9aa <enc28j60PhyWrite+0x40>
     99c:	88 e2       	ldi	r24, 0x28	; 40
     99e:	89 83       	std	Y+1, r24	; 0x01
     9a0:	89 81       	ldd	r24, Y+1	; 0x01
     9a2:	18 2f       	mov	r17, r24
     9a4:	1a 95       	dec	r17
     9a6:	f1 f7       	brne	.-4      	; 0x9a4 <enc28j60PhyWrite+0x3a>
     9a8:	19 83       	std	Y+1, r17	; 0x01
     9aa:	8a ee       	ldi	r24, 0xEA	; 234
     9ac:	bd df       	rcall	.-134    	; 0x928 <enc28j60Read>
     9ae:	88 2f       	mov	r24, r24
     9b0:	90 e0       	ldi	r25, 0x00	; 0
     9b2:	81 70       	andi	r24, 0x01	; 1
     9b4:	99 27       	eor	r25, r25
     9b6:	00 97       	sbiw	r24, 0x00	; 0
     9b8:	89 f7       	brne	.-30     	; 0x99c <enc28j60PhyWrite+0x32>
     9ba:	0f 90       	pop	r0
     9bc:	0f 90       	pop	r0
     9be:	0f 90       	pop	r0
     9c0:	0f 90       	pop	r0
     9c2:	df 91       	pop	r29
     9c4:	cf 91       	pop	r28
     9c6:	1f 91       	pop	r17
     9c8:	08 95       	ret

000009ca <enc28j60Init>:
     9ca:	0f 93       	push	r16
     9cc:	1f 93       	push	r17
     9ce:	cf 93       	push	r28
     9d0:	df 93       	push	r29
     9d2:	00 d0       	rcall	.+0      	; 0x9d4 <enc28j60Init+0xa>
     9d4:	00 d0       	rcall	.+0      	; 0x9d6 <enc28j60Init+0xc>
     9d6:	cd b7       	in	r28, 0x3d	; 61
     9d8:	de b7       	in	r29, 0x3e	; 62
     9da:	9c 83       	std	Y+4, r25	; 0x04
     9dc:	8b 83       	std	Y+3, r24	; 0x03
     9de:	84 e2       	ldi	r24, 0x24	; 36
     9e0:	90 e0       	ldi	r25, 0x00	; 0
     9e2:	24 e2       	ldi	r18, 0x24	; 36
     9e4:	30 e0       	ldi	r19, 0x00	; 0
     9e6:	f9 01       	movw	r30, r18
     9e8:	20 81       	ld	r18, Z
     9ea:	20 61       	ori	r18, 0x10	; 16
     9ec:	fc 01       	movw	r30, r24
     9ee:	20 83       	st	Z, r18
     9f0:	85 e2       	ldi	r24, 0x25	; 37
     9f2:	90 e0       	ldi	r25, 0x00	; 0
     9f4:	25 e2       	ldi	r18, 0x25	; 37
     9f6:	30 e0       	ldi	r19, 0x00	; 0
     9f8:	f9 01       	movw	r30, r18
     9fa:	20 81       	ld	r18, Z
     9fc:	20 61       	ori	r18, 0x10	; 16
     9fe:	fc 01       	movw	r30, r24
     a00:	20 83       	st	Z, r18
     a02:	84 e2       	ldi	r24, 0x24	; 36
     a04:	90 e0       	ldi	r25, 0x00	; 0
     a06:	24 e2       	ldi	r18, 0x24	; 36
     a08:	30 e0       	ldi	r19, 0x00	; 0
     a0a:	f9 01       	movw	r30, r18
     a0c:	20 81       	ld	r18, Z
     a0e:	20 6a       	ori	r18, 0xA0	; 160
     a10:	fc 01       	movw	r30, r24
     a12:	20 83       	st	Z, r18
     a14:	84 e2       	ldi	r24, 0x24	; 36
     a16:	90 e0       	ldi	r25, 0x00	; 0
     a18:	24 e2       	ldi	r18, 0x24	; 36
     a1a:	30 e0       	ldi	r19, 0x00	; 0
     a1c:	f9 01       	movw	r30, r18
     a1e:	20 81       	ld	r18, Z
     a20:	20 64       	ori	r18, 0x40	; 64
     a22:	fc 01       	movw	r30, r24
     a24:	20 83       	st	Z, r18
     a26:	85 e2       	ldi	r24, 0x25	; 37
     a28:	90 e0       	ldi	r25, 0x00	; 0
     a2a:	25 e2       	ldi	r18, 0x25	; 37
     a2c:	30 e0       	ldi	r19, 0x00	; 0
     a2e:	f9 01       	movw	r30, r18
     a30:	20 81       	ld	r18, Z
     a32:	20 62       	ori	r18, 0x20	; 32
     a34:	fc 01       	movw	r30, r24
     a36:	20 83       	st	Z, r18
     a38:	85 e2       	ldi	r24, 0x25	; 37
     a3a:	90 e0       	ldi	r25, 0x00	; 0
     a3c:	25 e2       	ldi	r18, 0x25	; 37
     a3e:	30 e0       	ldi	r19, 0x00	; 0
     a40:	f9 01       	movw	r30, r18
     a42:	20 81       	ld	r18, Z
     a44:	20 68       	ori	r18, 0x80	; 128
     a46:	fc 01       	movw	r30, r24
     a48:	20 83       	st	Z, r18
     a4a:	8c e4       	ldi	r24, 0x4C	; 76
     a4c:	90 e0       	ldi	r25, 0x00	; 0
     a4e:	20 e5       	ldi	r18, 0x50	; 80
     a50:	fc 01       	movw	r30, r24
     a52:	20 83       	st	Z, r18
     a54:	8d e4       	ldi	r24, 0x4D	; 77
     a56:	90 e0       	ldi	r25, 0x00	; 0
     a58:	2d e4       	ldi	r18, 0x4D	; 77
     a5a:	30 e0       	ldi	r19, 0x00	; 0
     a5c:	f9 01       	movw	r30, r18
     a5e:	20 81       	ld	r18, Z
     a60:	21 60       	ori	r18, 0x01	; 1
     a62:	fc 01       	movw	r30, r24
     a64:	20 83       	st	Z, r18
     a66:	4f ef       	ldi	r20, 0xFF	; 255
     a68:	60 e0       	ldi	r22, 0x00	; 0
     a6a:	8f ef       	ldi	r24, 0xFF	; 255
     a6c:	52 de       	rcall	.-860    	; 0x712 <enc28j60WriteOp>
     a6e:	1a 82       	std	Y+2, r1	; 0x02
     a70:	19 82       	std	Y+1, r1	; 0x01
     a72:	89 81       	ldd	r24, Y+1	; 0x01
     a74:	9a 81       	ldd	r25, Y+2	; 0x02
     a76:	8c 01       	movw	r16, r24
     a78:	c8 01       	movw	r24, r16
     a7a:	01 97       	sbiw	r24, 0x01	; 1
     a7c:	f1 f7       	brne	.-4      	; 0xa7a <enc28j60Init+0xb0>
     a7e:	8c 01       	movw	r16, r24
     a80:	1a 83       	std	Y+2, r17	; 0x02
     a82:	09 83       	std	Y+1, r16	; 0x01
     a84:	10 92 0f 03 	sts	0x030F, r1
     a88:	10 92 0e 03 	sts	0x030E, r1
     a8c:	60 e0       	ldi	r22, 0x00	; 0
     a8e:	88 e0       	ldi	r24, 0x08	; 8
     a90:	5a df       	rcall	.-332    	; 0x946 <enc28j60Write>
     a92:	60 e0       	ldi	r22, 0x00	; 0
     a94:	89 e0       	ldi	r24, 0x09	; 9
     a96:	57 df       	rcall	.-338    	; 0x946 <enc28j60Write>
     a98:	60 e0       	ldi	r22, 0x00	; 0
     a9a:	8c e0       	ldi	r24, 0x0C	; 12
     a9c:	54 df       	rcall	.-344    	; 0x946 <enc28j60Write>
     a9e:	60 e0       	ldi	r22, 0x00	; 0
     aa0:	8d e0       	ldi	r24, 0x0D	; 13
     aa2:	51 df       	rcall	.-350    	; 0x946 <enc28j60Write>
     aa4:	6f ef       	ldi	r22, 0xFF	; 255
     aa6:	8a e0       	ldi	r24, 0x0A	; 10
     aa8:	4e df       	rcall	.-356    	; 0x946 <enc28j60Write>
     aaa:	69 e1       	ldi	r22, 0x19	; 25
     aac:	8b e0       	ldi	r24, 0x0B	; 11
     aae:	4b df       	rcall	.-362    	; 0x946 <enc28j60Write>
     ab0:	60 e0       	ldi	r22, 0x00	; 0
     ab2:	84 e0       	ldi	r24, 0x04	; 4
     ab4:	48 df       	rcall	.-368    	; 0x946 <enc28j60Write>
     ab6:	6a e1       	ldi	r22, 0x1A	; 26
     ab8:	85 e0       	ldi	r24, 0x05	; 5
     aba:	45 df       	rcall	.-374    	; 0x946 <enc28j60Write>
     abc:	6f ef       	ldi	r22, 0xFF	; 255
     abe:	86 e0       	ldi	r24, 0x06	; 6
     ac0:	42 df       	rcall	.-380    	; 0x946 <enc28j60Write>
     ac2:	6f e1       	ldi	r22, 0x1F	; 31
     ac4:	87 e0       	ldi	r24, 0x07	; 7
     ac6:	3f df       	rcall	.-386    	; 0x946 <enc28j60Write>
     ac8:	60 eb       	ldi	r22, 0xB0	; 176
     aca:	88 e3       	ldi	r24, 0x38	; 56
     acc:	3c df       	rcall	.-392    	; 0x946 <enc28j60Write>
     ace:	6f e3       	ldi	r22, 0x3F	; 63
     ad0:	88 e2       	ldi	r24, 0x28	; 40
     ad2:	39 df       	rcall	.-398    	; 0x946 <enc28j60Write>
     ad4:	60 e3       	ldi	r22, 0x30	; 48
     ad6:	89 e2       	ldi	r24, 0x29	; 41
     ad8:	36 df       	rcall	.-404    	; 0x946 <enc28j60Write>
     ada:	69 ef       	ldi	r22, 0xF9	; 249
     adc:	80 e3       	ldi	r24, 0x30	; 48
     ade:	33 df       	rcall	.-410    	; 0x946 <enc28j60Write>
     ae0:	67 ef       	ldi	r22, 0xF7	; 247
     ae2:	81 e3       	ldi	r24, 0x31	; 49
     ae4:	30 df       	rcall	.-416    	; 0x946 <enc28j60Write>
     ae6:	6d e0       	ldi	r22, 0x0D	; 13
     ae8:	80 ec       	ldi	r24, 0xC0	; 192
     aea:	2d df       	rcall	.-422    	; 0x946 <enc28j60Write>
     aec:	60 e0       	ldi	r22, 0x00	; 0
     aee:	81 ec       	ldi	r24, 0xC1	; 193
     af0:	2a df       	rcall	.-428    	; 0x946 <enc28j60Write>
     af2:	42 e3       	ldi	r20, 0x32	; 50
     af4:	62 ec       	ldi	r22, 0xC2	; 194
     af6:	80 e8       	ldi	r24, 0x80	; 128
     af8:	0c de       	rcall	.-1000   	; 0x712 <enc28j60WriteOp>
     afa:	62 e1       	ldi	r22, 0x12	; 18
     afc:	86 ec       	ldi	r24, 0xC6	; 198
     afe:	23 df       	rcall	.-442    	; 0x946 <enc28j60Write>
     b00:	6c e0       	ldi	r22, 0x0C	; 12
     b02:	87 ec       	ldi	r24, 0xC7	; 199
     b04:	20 df       	rcall	.-448    	; 0x946 <enc28j60Write>
     b06:	62 e1       	ldi	r22, 0x12	; 18
     b08:	84 ec       	ldi	r24, 0xC4	; 196
     b0a:	1d df       	rcall	.-454    	; 0x946 <enc28j60Write>
     b0c:	6c ed       	ldi	r22, 0xDC	; 220
     b0e:	8a ec       	ldi	r24, 0xCA	; 202
     b10:	1a df       	rcall	.-460    	; 0x946 <enc28j60Write>
     b12:	65 e0       	ldi	r22, 0x05	; 5
     b14:	8b ec       	ldi	r24, 0xCB	; 203
     b16:	17 df       	rcall	.-466    	; 0x946 <enc28j60Write>
     b18:	8b 81       	ldd	r24, Y+3	; 0x03
     b1a:	9c 81       	ldd	r25, Y+4	; 0x04
     b1c:	fc 01       	movw	r30, r24
     b1e:	80 81       	ld	r24, Z
     b20:	68 2f       	mov	r22, r24
     b22:	84 ee       	ldi	r24, 0xE4	; 228
     b24:	10 df       	rcall	.-480    	; 0x946 <enc28j60Write>
     b26:	8b 81       	ldd	r24, Y+3	; 0x03
     b28:	9c 81       	ldd	r25, Y+4	; 0x04
     b2a:	01 96       	adiw	r24, 0x01	; 1
     b2c:	fc 01       	movw	r30, r24
     b2e:	80 81       	ld	r24, Z
     b30:	68 2f       	mov	r22, r24
     b32:	85 ee       	ldi	r24, 0xE5	; 229
     b34:	08 df       	rcall	.-496    	; 0x946 <enc28j60Write>
     b36:	8b 81       	ldd	r24, Y+3	; 0x03
     b38:	9c 81       	ldd	r25, Y+4	; 0x04
     b3a:	02 96       	adiw	r24, 0x02	; 2
     b3c:	fc 01       	movw	r30, r24
     b3e:	80 81       	ld	r24, Z
     b40:	68 2f       	mov	r22, r24
     b42:	82 ee       	ldi	r24, 0xE2	; 226
     b44:	00 df       	rcall	.-512    	; 0x946 <enc28j60Write>
     b46:	8b 81       	ldd	r24, Y+3	; 0x03
     b48:	9c 81       	ldd	r25, Y+4	; 0x04
     b4a:	03 96       	adiw	r24, 0x03	; 3
     b4c:	fc 01       	movw	r30, r24
     b4e:	80 81       	ld	r24, Z
     b50:	68 2f       	mov	r22, r24
     b52:	83 ee       	ldi	r24, 0xE3	; 227
     b54:	f8 de       	rcall	.-528    	; 0x946 <enc28j60Write>
     b56:	8b 81       	ldd	r24, Y+3	; 0x03
     b58:	9c 81       	ldd	r25, Y+4	; 0x04
     b5a:	04 96       	adiw	r24, 0x04	; 4
     b5c:	fc 01       	movw	r30, r24
     b5e:	80 81       	ld	r24, Z
     b60:	68 2f       	mov	r22, r24
     b62:	80 ee       	ldi	r24, 0xE0	; 224
     b64:	f0 de       	rcall	.-544    	; 0x946 <enc28j60Write>
     b66:	8b 81       	ldd	r24, Y+3	; 0x03
     b68:	9c 81       	ldd	r25, Y+4	; 0x04
     b6a:	05 96       	adiw	r24, 0x05	; 5
     b6c:	fc 01       	movw	r30, r24
     b6e:	80 81       	ld	r24, Z
     b70:	68 2f       	mov	r22, r24
     b72:	81 ee       	ldi	r24, 0xE1	; 225
     b74:	e8 de       	rcall	.-560    	; 0x946 <enc28j60Write>
     b76:	60 e0       	ldi	r22, 0x00	; 0
     b78:	71 e0       	ldi	r23, 0x01	; 1
     b7a:	80 e1       	ldi	r24, 0x10	; 16
     b7c:	f6 de       	rcall	.-532    	; 0x96a <enc28j60PhyWrite>
     b7e:	8f e1       	ldi	r24, 0x1F	; 31
     b80:	a1 de       	rcall	.-702    	; 0x8c4 <enc28j60SetBank>
     b82:	40 ec       	ldi	r20, 0xC0	; 192
     b84:	6b e1       	ldi	r22, 0x1B	; 27
     b86:	80 e8       	ldi	r24, 0x80	; 128
     b88:	c4 dd       	rcall	.-1144   	; 0x712 <enc28j60WriteOp>
     b8a:	44 e0       	ldi	r20, 0x04	; 4
     b8c:	6f e1       	ldi	r22, 0x1F	; 31
     b8e:	80 e8       	ldi	r24, 0x80	; 128
     b90:	c0 dd       	rcall	.-1152   	; 0x712 <enc28j60WriteOp>
     b92:	0f 90       	pop	r0
     b94:	0f 90       	pop	r0
     b96:	0f 90       	pop	r0
     b98:	0f 90       	pop	r0
     b9a:	df 91       	pop	r29
     b9c:	cf 91       	pop	r28
     b9e:	1f 91       	pop	r17
     ba0:	0f 91       	pop	r16
     ba2:	08 95       	ret

00000ba4 <enc28j60PacketSend>:
     ba4:	cf 93       	push	r28
     ba6:	df 93       	push	r29
     ba8:	00 d0       	rcall	.+0      	; 0xbaa <enc28j60PacketSend+0x6>
     baa:	00 d0       	rcall	.+0      	; 0xbac <enc28j60PacketSend+0x8>
     bac:	cd b7       	in	r28, 0x3d	; 61
     bae:	de b7       	in	r29, 0x3e	; 62
     bb0:	9a 83       	std	Y+2, r25	; 0x02
     bb2:	89 83       	std	Y+1, r24	; 0x01
     bb4:	7c 83       	std	Y+4, r23	; 0x04
     bb6:	6b 83       	std	Y+3, r22	; 0x03
     bb8:	10 c0       	rjmp	.+32     	; 0xbda <enc28j60PacketSend+0x36>
     bba:	8c e1       	ldi	r24, 0x1C	; 28
     bbc:	b5 de       	rcall	.-662    	; 0x928 <enc28j60Read>
     bbe:	88 2f       	mov	r24, r24
     bc0:	90 e0       	ldi	r25, 0x00	; 0
     bc2:	82 70       	andi	r24, 0x02	; 2
     bc4:	99 27       	eor	r25, r25
     bc6:	00 97       	sbiw	r24, 0x00	; 0
     bc8:	41 f0       	breq	.+16     	; 0xbda <enc28j60PacketSend+0x36>
     bca:	40 e8       	ldi	r20, 0x80	; 128
     bcc:	6f e1       	ldi	r22, 0x1F	; 31
     bce:	80 e8       	ldi	r24, 0x80	; 128
     bd0:	a0 dd       	rcall	.-1216   	; 0x712 <enc28j60WriteOp>
     bd2:	40 e8       	ldi	r20, 0x80	; 128
     bd4:	6f e1       	ldi	r22, 0x1F	; 31
     bd6:	80 ea       	ldi	r24, 0xA0	; 160
     bd8:	9c dd       	rcall	.-1224   	; 0x712 <enc28j60WriteOp>
     bda:	6f e1       	ldi	r22, 0x1F	; 31
     bdc:	80 e0       	ldi	r24, 0x00	; 0
     bde:	51 dd       	rcall	.-1374   	; 0x682 <enc28j60ReadOp>
     be0:	88 2f       	mov	r24, r24
     be2:	90 e0       	ldi	r25, 0x00	; 0
     be4:	88 70       	andi	r24, 0x08	; 8
     be6:	99 27       	eor	r25, r25
     be8:	00 97       	sbiw	r24, 0x00	; 0
     bea:	39 f7       	brne	.-50     	; 0xbba <enc28j60PacketSend+0x16>
     bec:	60 e0       	ldi	r22, 0x00	; 0
     bee:	82 e0       	ldi	r24, 0x02	; 2
     bf0:	aa de       	rcall	.-684    	; 0x946 <enc28j60Write>
     bf2:	6a e1       	ldi	r22, 0x1A	; 26
     bf4:	83 e0       	ldi	r24, 0x03	; 3
     bf6:	a7 de       	rcall	.-690    	; 0x946 <enc28j60Write>
     bf8:	89 81       	ldd	r24, Y+1	; 0x01
     bfa:	68 2f       	mov	r22, r24
     bfc:	86 e0       	ldi	r24, 0x06	; 6
     bfe:	a3 de       	rcall	.-698    	; 0x946 <enc28j60Write>
     c00:	89 81       	ldd	r24, Y+1	; 0x01
     c02:	9a 81       	ldd	r25, Y+2	; 0x02
     c04:	96 5e       	subi	r25, 0xE6	; 230
     c06:	89 2f       	mov	r24, r25
     c08:	99 27       	eor	r25, r25
     c0a:	68 2f       	mov	r22, r24
     c0c:	87 e0       	ldi	r24, 0x07	; 7
     c0e:	9b de       	rcall	.-714    	; 0x946 <enc28j60Write>
     c10:	40 e0       	ldi	r20, 0x00	; 0
     c12:	60 e0       	ldi	r22, 0x00	; 0
     c14:	8a e7       	ldi	r24, 0x7A	; 122
     c16:	7d dd       	rcall	.-1286   	; 0x712 <enc28j60WriteOp>
     c18:	2b 81       	ldd	r18, Y+3	; 0x03
     c1a:	3c 81       	ldd	r19, Y+4	; 0x04
     c1c:	89 81       	ldd	r24, Y+1	; 0x01
     c1e:	9a 81       	ldd	r25, Y+2	; 0x02
     c20:	b9 01       	movw	r22, r18
     c22:	05 de       	rcall	.-1014   	; 0x82e <enc28j60WriteBuffer>
     c24:	48 e0       	ldi	r20, 0x08	; 8
     c26:	6f e1       	ldi	r22, 0x1F	; 31
     c28:	80 e8       	ldi	r24, 0x80	; 128
     c2a:	73 dd       	rcall	.-1306   	; 0x712 <enc28j60WriteOp>
     c2c:	0f 90       	pop	r0
     c2e:	0f 90       	pop	r0
     c30:	0f 90       	pop	r0
     c32:	0f 90       	pop	r0
     c34:	df 91       	pop	r29
     c36:	cf 91       	pop	r28
     c38:	08 95       	ret

00000c3a <enc28j60PacketReceive>:
     c3a:	cf 93       	push	r28
     c3c:	df 93       	push	r29
     c3e:	cd b7       	in	r28, 0x3d	; 61
     c40:	de b7       	in	r29, 0x3e	; 62
     c42:	28 97       	sbiw	r28, 0x08	; 8
     c44:	0f b6       	in	r0, 0x3f	; 63
     c46:	f8 94       	cli
     c48:	de bf       	out	0x3e, r29	; 62
     c4a:	0f be       	out	0x3f, r0	; 63
     c4c:	cd bf       	out	0x3d, r28	; 61
     c4e:	9e 83       	std	Y+6, r25	; 0x06
     c50:	8d 83       	std	Y+5, r24	; 0x05
     c52:	78 87       	std	Y+8, r23	; 0x08
     c54:	6f 83       	std	Y+7, r22	; 0x07
     c56:	89 e3       	ldi	r24, 0x39	; 57
     c58:	67 de       	rcall	.-818    	; 0x928 <enc28j60Read>
     c5a:	88 23       	and	r24, r24
     c5c:	19 f4       	brne	.+6      	; 0xc64 <enc28j60PacketReceive+0x2a>
     c5e:	80 e0       	ldi	r24, 0x00	; 0
     c60:	90 e0       	ldi	r25, 0x00	; 0
     c62:	9f c0       	rjmp	.+318    	; 0xda2 <enc28j60PacketReceive+0x168>
     c64:	80 91 0e 03 	lds	r24, 0x030E
     c68:	90 91 0f 03 	lds	r25, 0x030F
     c6c:	68 2f       	mov	r22, r24
     c6e:	80 e0       	ldi	r24, 0x00	; 0
     c70:	6a de       	rcall	.-812    	; 0x946 <enc28j60Write>
     c72:	80 91 0e 03 	lds	r24, 0x030E
     c76:	90 91 0f 03 	lds	r25, 0x030F
     c7a:	89 2f       	mov	r24, r25
     c7c:	99 0f       	add	r25, r25
     c7e:	99 0b       	sbc	r25, r25
     c80:	68 2f       	mov	r22, r24
     c82:	81 e0       	ldi	r24, 0x01	; 1
     c84:	60 de       	rcall	.-832    	; 0x946 <enc28j60Write>
     c86:	60 e0       	ldi	r22, 0x00	; 0
     c88:	8a e3       	ldi	r24, 0x3A	; 58
     c8a:	fb dc       	rcall	.-1546   	; 0x682 <enc28j60ReadOp>
     c8c:	88 2f       	mov	r24, r24
     c8e:	90 e0       	ldi	r25, 0x00	; 0
     c90:	90 93 0f 03 	sts	0x030F, r25
     c94:	80 93 0e 03 	sts	0x030E, r24
     c98:	60 e0       	ldi	r22, 0x00	; 0
     c9a:	8a e3       	ldi	r24, 0x3A	; 58
     c9c:	f2 dc       	rcall	.-1564   	; 0x682 <enc28j60ReadOp>
     c9e:	88 2f       	mov	r24, r24
     ca0:	90 e0       	ldi	r25, 0x00	; 0
     ca2:	38 2f       	mov	r19, r24
     ca4:	22 27       	eor	r18, r18
     ca6:	80 91 0e 03 	lds	r24, 0x030E
     caa:	90 91 0f 03 	lds	r25, 0x030F
     cae:	82 2b       	or	r24, r18
     cb0:	93 2b       	or	r25, r19
     cb2:	90 93 0f 03 	sts	0x030F, r25
     cb6:	80 93 0e 03 	sts	0x030E, r24
     cba:	60 e0       	ldi	r22, 0x00	; 0
     cbc:	8a e3       	ldi	r24, 0x3A	; 58
     cbe:	e1 dc       	rcall	.-1598   	; 0x682 <enc28j60ReadOp>
     cc0:	88 2f       	mov	r24, r24
     cc2:	90 e0       	ldi	r25, 0x00	; 0
     cc4:	9a 83       	std	Y+2, r25	; 0x02
     cc6:	89 83       	std	Y+1, r24	; 0x01
     cc8:	60 e0       	ldi	r22, 0x00	; 0
     cca:	8a e3       	ldi	r24, 0x3A	; 58
     ccc:	da dc       	rcall	.-1612   	; 0x682 <enc28j60ReadOp>
     cce:	88 2f       	mov	r24, r24
     cd0:	90 e0       	ldi	r25, 0x00	; 0
     cd2:	98 2f       	mov	r25, r24
     cd4:	88 27       	eor	r24, r24
     cd6:	29 81       	ldd	r18, Y+1	; 0x01
     cd8:	3a 81       	ldd	r19, Y+2	; 0x02
     cda:	82 2b       	or	r24, r18
     cdc:	93 2b       	or	r25, r19
     cde:	9a 83       	std	Y+2, r25	; 0x02
     ce0:	89 83       	std	Y+1, r24	; 0x01
     ce2:	89 81       	ldd	r24, Y+1	; 0x01
     ce4:	9a 81       	ldd	r25, Y+2	; 0x02
     ce6:	04 97       	sbiw	r24, 0x04	; 4
     ce8:	9a 83       	std	Y+2, r25	; 0x02
     cea:	89 83       	std	Y+1, r24	; 0x01
     cec:	60 e0       	ldi	r22, 0x00	; 0
     cee:	8a e3       	ldi	r24, 0x3A	; 58
     cf0:	c8 dc       	rcall	.-1648   	; 0x682 <enc28j60ReadOp>
     cf2:	88 2f       	mov	r24, r24
     cf4:	90 e0       	ldi	r25, 0x00	; 0
     cf6:	9c 83       	std	Y+4, r25	; 0x04
     cf8:	8b 83       	std	Y+3, r24	; 0x03
     cfa:	60 e0       	ldi	r22, 0x00	; 0
     cfc:	8a e3       	ldi	r24, 0x3A	; 58
     cfe:	c1 dc       	rcall	.-1662   	; 0x682 <enc28j60ReadOp>
     d00:	88 2f       	mov	r24, r24
     d02:	90 e0       	ldi	r25, 0x00	; 0
     d04:	98 2f       	mov	r25, r24
     d06:	88 27       	eor	r24, r24
     d08:	2b 81       	ldd	r18, Y+3	; 0x03
     d0a:	3c 81       	ldd	r19, Y+4	; 0x04
     d0c:	82 2b       	or	r24, r18
     d0e:	93 2b       	or	r25, r19
     d10:	9c 83       	std	Y+4, r25	; 0x04
     d12:	8b 83       	std	Y+3, r24	; 0x03
     d14:	8d 81       	ldd	r24, Y+5	; 0x05
     d16:	9e 81       	ldd	r25, Y+6	; 0x06
     d18:	9c 01       	movw	r18, r24
     d1a:	21 50       	subi	r18, 0x01	; 1
     d1c:	31 09       	sbc	r19, r1
     d1e:	89 81       	ldd	r24, Y+1	; 0x01
     d20:	9a 81       	ldd	r25, Y+2	; 0x02
     d22:	28 17       	cp	r18, r24
     d24:	39 07       	cpc	r19, r25
     d26:	28 f4       	brcc	.+10     	; 0xd32 <enc28j60PacketReceive+0xf8>
     d28:	8d 81       	ldd	r24, Y+5	; 0x05
     d2a:	9e 81       	ldd	r25, Y+6	; 0x06
     d2c:	01 97       	sbiw	r24, 0x01	; 1
     d2e:	9a 83       	std	Y+2, r25	; 0x02
     d30:	89 83       	std	Y+1, r24	; 0x01
     d32:	8b 81       	ldd	r24, Y+3	; 0x03
     d34:	9c 81       	ldd	r25, Y+4	; 0x04
     d36:	80 78       	andi	r24, 0x80	; 128
     d38:	99 27       	eor	r25, r25
     d3a:	00 97       	sbiw	r24, 0x00	; 0
     d3c:	19 f4       	brne	.+6      	; 0xd44 <enc28j60PacketReceive+0x10a>
     d3e:	1a 82       	std	Y+2, r1	; 0x02
     d40:	19 82       	std	Y+1, r1	; 0x01
     d42:	06 c0       	rjmp	.+12     	; 0xd50 <enc28j60PacketReceive+0x116>
     d44:	2f 81       	ldd	r18, Y+7	; 0x07
     d46:	38 85       	ldd	r19, Y+8	; 0x08
     d48:	89 81       	ldd	r24, Y+1	; 0x01
     d4a:	9a 81       	ldd	r25, Y+2	; 0x02
     d4c:	b9 01       	movw	r22, r18
     d4e:	1c dd       	rcall	.-1480   	; 0x788 <enc28j60ReadBuffer>
     d50:	80 91 0e 03 	lds	r24, 0x030E
     d54:	90 91 0f 03 	lds	r25, 0x030F
     d58:	01 97       	sbiw	r24, 0x01	; 1
     d5a:	81 15       	cp	r24, r1
     d5c:	2a e1       	ldi	r18, 0x1A	; 26
     d5e:	92 07       	cpc	r25, r18
     d60:	3c f0       	brlt	.+14     	; 0xd70 <enc28j60PacketReceive+0x136>
     d62:	6f ef       	ldi	r22, 0xFF	; 255
     d64:	8c e0       	ldi	r24, 0x0C	; 12
     d66:	ef dd       	rcall	.-1058   	; 0x946 <enc28j60Write>
     d68:	69 e1       	ldi	r22, 0x19	; 25
     d6a:	8d e0       	ldi	r24, 0x0D	; 13
     d6c:	ec dd       	rcall	.-1064   	; 0x946 <enc28j60Write>
     d6e:	13 c0       	rjmp	.+38     	; 0xd96 <enc28j60PacketReceive+0x15c>
     d70:	80 91 0e 03 	lds	r24, 0x030E
     d74:	90 91 0f 03 	lds	r25, 0x030F
     d78:	81 50       	subi	r24, 0x01	; 1
     d7a:	68 2f       	mov	r22, r24
     d7c:	8c e0       	ldi	r24, 0x0C	; 12
     d7e:	e3 dd       	rcall	.-1082   	; 0x946 <enc28j60Write>
     d80:	80 91 0e 03 	lds	r24, 0x030E
     d84:	90 91 0f 03 	lds	r25, 0x030F
     d88:	01 97       	sbiw	r24, 0x01	; 1
     d8a:	89 2f       	mov	r24, r25
     d8c:	99 0f       	add	r25, r25
     d8e:	99 0b       	sbc	r25, r25
     d90:	68 2f       	mov	r22, r24
     d92:	8d e0       	ldi	r24, 0x0D	; 13
     d94:	d8 dd       	rcall	.-1104   	; 0x946 <enc28j60Write>
     d96:	40 e4       	ldi	r20, 0x40	; 64
     d98:	6e e1       	ldi	r22, 0x1E	; 30
     d9a:	80 e8       	ldi	r24, 0x80	; 128
     d9c:	ba dc       	rcall	.-1676   	; 0x712 <enc28j60WriteOp>
     d9e:	89 81       	ldd	r24, Y+1	; 0x01
     da0:	9a 81       	ldd	r25, Y+2	; 0x02
     da2:	28 96       	adiw	r28, 0x08	; 8
     da4:	0f b6       	in	r0, 0x3f	; 63
     da6:	f8 94       	cli
     da8:	de bf       	out	0x3e, r29	; 62
     daa:	0f be       	out	0x3f, r0	; 63
     dac:	cd bf       	out	0x3d, r28	; 61
     dae:	df 91       	pop	r29
     db0:	cf 91       	pop	r28
     db2:	08 95       	ret

00000db4 <checksum>:
     db4:	cf 93       	push	r28
     db6:	df 93       	push	r29
     db8:	cd b7       	in	r28, 0x3d	; 61
     dba:	de b7       	in	r29, 0x3e	; 62
     dbc:	29 97       	sbiw	r28, 0x09	; 9
     dbe:	0f b6       	in	r0, 0x3f	; 63
     dc0:	f8 94       	cli
     dc2:	de bf       	out	0x3e, r29	; 62
     dc4:	0f be       	out	0x3f, r0	; 63
     dc6:	cd bf       	out	0x3d, r28	; 61
     dc8:	9e 83       	std	Y+6, r25	; 0x06
     dca:	8d 83       	std	Y+5, r24	; 0x05
     dcc:	78 87       	std	Y+8, r23	; 0x08
     dce:	6f 83       	std	Y+7, r22	; 0x07
     dd0:	49 87       	std	Y+9, r20	; 0x09
     dd2:	19 82       	std	Y+1, r1	; 0x01
     dd4:	1a 82       	std	Y+2, r1	; 0x02
     dd6:	1b 82       	std	Y+3, r1	; 0x03
     dd8:	1c 82       	std	Y+4, r1	; 0x04
     dda:	89 85       	ldd	r24, Y+9	; 0x09
     ddc:	81 30       	cpi	r24, 0x01	; 1
     dde:	e9 f4       	brne	.+58     	; 0xe1a <checksum+0x66>
     de0:	89 81       	ldd	r24, Y+1	; 0x01
     de2:	9a 81       	ldd	r25, Y+2	; 0x02
     de4:	ab 81       	ldd	r26, Y+3	; 0x03
     de6:	bc 81       	ldd	r27, Y+4	; 0x04
     de8:	41 96       	adiw	r24, 0x11	; 17
     dea:	a1 1d       	adc	r26, r1
     dec:	b1 1d       	adc	r27, r1
     dee:	89 83       	std	Y+1, r24	; 0x01
     df0:	9a 83       	std	Y+2, r25	; 0x02
     df2:	ab 83       	std	Y+3, r26	; 0x03
     df4:	bc 83       	std	Y+4, r27	; 0x04
     df6:	8f 81       	ldd	r24, Y+7	; 0x07
     df8:	98 85       	ldd	r25, Y+8	; 0x08
     dfa:	08 97       	sbiw	r24, 0x08	; 8
     dfc:	cc 01       	movw	r24, r24
     dfe:	a0 e0       	ldi	r26, 0x00	; 0
     e00:	b0 e0       	ldi	r27, 0x00	; 0
     e02:	29 81       	ldd	r18, Y+1	; 0x01
     e04:	3a 81       	ldd	r19, Y+2	; 0x02
     e06:	4b 81       	ldd	r20, Y+3	; 0x03
     e08:	5c 81       	ldd	r21, Y+4	; 0x04
     e0a:	82 0f       	add	r24, r18
     e0c:	93 1f       	adc	r25, r19
     e0e:	a4 1f       	adc	r26, r20
     e10:	b5 1f       	adc	r27, r21
     e12:	89 83       	std	Y+1, r24	; 0x01
     e14:	9a 83       	std	Y+2, r25	; 0x02
     e16:	ab 83       	std	Y+3, r26	; 0x03
     e18:	bc 83       	std	Y+4, r27	; 0x04
     e1a:	89 85       	ldd	r24, Y+9	; 0x09
     e1c:	82 30       	cpi	r24, 0x02	; 2
     e1e:	09 f0       	breq	.+2      	; 0xe22 <checksum+0x6e>
     e20:	4f c0       	rjmp	.+158    	; 0xec0 <checksum+0x10c>
     e22:	89 81       	ldd	r24, Y+1	; 0x01
     e24:	9a 81       	ldd	r25, Y+2	; 0x02
     e26:	ab 81       	ldd	r26, Y+3	; 0x03
     e28:	bc 81       	ldd	r27, Y+4	; 0x04
     e2a:	06 96       	adiw	r24, 0x06	; 6
     e2c:	a1 1d       	adc	r26, r1
     e2e:	b1 1d       	adc	r27, r1
     e30:	89 83       	std	Y+1, r24	; 0x01
     e32:	9a 83       	std	Y+2, r25	; 0x02
     e34:	ab 83       	std	Y+3, r26	; 0x03
     e36:	bc 83       	std	Y+4, r27	; 0x04
     e38:	8f 81       	ldd	r24, Y+7	; 0x07
     e3a:	98 85       	ldd	r25, Y+8	; 0x08
     e3c:	08 97       	sbiw	r24, 0x08	; 8
     e3e:	cc 01       	movw	r24, r24
     e40:	a0 e0       	ldi	r26, 0x00	; 0
     e42:	b0 e0       	ldi	r27, 0x00	; 0
     e44:	29 81       	ldd	r18, Y+1	; 0x01
     e46:	3a 81       	ldd	r19, Y+2	; 0x02
     e48:	4b 81       	ldd	r20, Y+3	; 0x03
     e4a:	5c 81       	ldd	r21, Y+4	; 0x04
     e4c:	82 0f       	add	r24, r18
     e4e:	93 1f       	adc	r25, r19
     e50:	a4 1f       	adc	r26, r20
     e52:	b5 1f       	adc	r27, r21
     e54:	89 83       	std	Y+1, r24	; 0x01
     e56:	9a 83       	std	Y+2, r25	; 0x02
     e58:	ab 83       	std	Y+3, r26	; 0x03
     e5a:	bc 83       	std	Y+4, r27	; 0x04
     e5c:	31 c0       	rjmp	.+98     	; 0xec0 <checksum+0x10c>
     e5e:	8d 81       	ldd	r24, Y+5	; 0x05
     e60:	9e 81       	ldd	r25, Y+6	; 0x06
     e62:	fc 01       	movw	r30, r24
     e64:	80 81       	ld	r24, Z
     e66:	88 2f       	mov	r24, r24
     e68:	90 e0       	ldi	r25, 0x00	; 0
     e6a:	a0 e0       	ldi	r26, 0x00	; 0
     e6c:	b0 e0       	ldi	r27, 0x00	; 0
     e6e:	22 27       	eor	r18, r18
     e70:	38 2f       	mov	r19, r24
     e72:	49 2f       	mov	r20, r25
     e74:	5a 2f       	mov	r21, r26
     e76:	8d 81       	ldd	r24, Y+5	; 0x05
     e78:	9e 81       	ldd	r25, Y+6	; 0x06
     e7a:	01 96       	adiw	r24, 0x01	; 1
     e7c:	fc 01       	movw	r30, r24
     e7e:	80 81       	ld	r24, Z
     e80:	88 2f       	mov	r24, r24
     e82:	90 e0       	ldi	r25, 0x00	; 0
     e84:	a0 e0       	ldi	r26, 0x00	; 0
     e86:	b0 e0       	ldi	r27, 0x00	; 0
     e88:	82 2b       	or	r24, r18
     e8a:	93 2b       	or	r25, r19
     e8c:	a4 2b       	or	r26, r20
     e8e:	b5 2b       	or	r27, r21
     e90:	aa 27       	eor	r26, r26
     e92:	bb 27       	eor	r27, r27
     e94:	29 81       	ldd	r18, Y+1	; 0x01
     e96:	3a 81       	ldd	r19, Y+2	; 0x02
     e98:	4b 81       	ldd	r20, Y+3	; 0x03
     e9a:	5c 81       	ldd	r21, Y+4	; 0x04
     e9c:	82 0f       	add	r24, r18
     e9e:	93 1f       	adc	r25, r19
     ea0:	a4 1f       	adc	r26, r20
     ea2:	b5 1f       	adc	r27, r21
     ea4:	89 83       	std	Y+1, r24	; 0x01
     ea6:	9a 83       	std	Y+2, r25	; 0x02
     ea8:	ab 83       	std	Y+3, r26	; 0x03
     eaa:	bc 83       	std	Y+4, r27	; 0x04
     eac:	8d 81       	ldd	r24, Y+5	; 0x05
     eae:	9e 81       	ldd	r25, Y+6	; 0x06
     eb0:	02 96       	adiw	r24, 0x02	; 2
     eb2:	9e 83       	std	Y+6, r25	; 0x06
     eb4:	8d 83       	std	Y+5, r24	; 0x05
     eb6:	8f 81       	ldd	r24, Y+7	; 0x07
     eb8:	98 85       	ldd	r25, Y+8	; 0x08
     eba:	02 97       	sbiw	r24, 0x02	; 2
     ebc:	98 87       	std	Y+8, r25	; 0x08
     ebe:	8f 83       	std	Y+7, r24	; 0x07
     ec0:	8f 81       	ldd	r24, Y+7	; 0x07
     ec2:	98 85       	ldd	r25, Y+8	; 0x08
     ec4:	82 30       	cpi	r24, 0x02	; 2
     ec6:	91 05       	cpc	r25, r1
     ec8:	50 f6       	brcc	.-108    	; 0xe5e <checksum+0xaa>
     eca:	8f 81       	ldd	r24, Y+7	; 0x07
     ecc:	98 85       	ldd	r25, Y+8	; 0x08
     ece:	00 97       	sbiw	r24, 0x00	; 0
     ed0:	89 f1       	breq	.+98     	; 0xf34 <checksum+0x180>
     ed2:	8d 81       	ldd	r24, Y+5	; 0x05
     ed4:	9e 81       	ldd	r25, Y+6	; 0x06
     ed6:	fc 01       	movw	r30, r24
     ed8:	80 81       	ld	r24, Z
     eda:	88 2f       	mov	r24, r24
     edc:	90 e0       	ldi	r25, 0x00	; 0
     ede:	a0 e0       	ldi	r26, 0x00	; 0
     ee0:	b0 e0       	ldi	r27, 0x00	; 0
     ee2:	ba 2f       	mov	r27, r26
     ee4:	a9 2f       	mov	r26, r25
     ee6:	98 2f       	mov	r25, r24
     ee8:	88 27       	eor	r24, r24
     eea:	29 81       	ldd	r18, Y+1	; 0x01
     eec:	3a 81       	ldd	r19, Y+2	; 0x02
     eee:	4b 81       	ldd	r20, Y+3	; 0x03
     ef0:	5c 81       	ldd	r21, Y+4	; 0x04
     ef2:	82 0f       	add	r24, r18
     ef4:	93 1f       	adc	r25, r19
     ef6:	a4 1f       	adc	r26, r20
     ef8:	b5 1f       	adc	r27, r21
     efa:	89 83       	std	Y+1, r24	; 0x01
     efc:	9a 83       	std	Y+2, r25	; 0x02
     efe:	ab 83       	std	Y+3, r26	; 0x03
     f00:	bc 83       	std	Y+4, r27	; 0x04
     f02:	18 c0       	rjmp	.+48     	; 0xf34 <checksum+0x180>
     f04:	89 81       	ldd	r24, Y+1	; 0x01
     f06:	9a 81       	ldd	r25, Y+2	; 0x02
     f08:	ab 81       	ldd	r26, Y+3	; 0x03
     f0a:	bc 81       	ldd	r27, Y+4	; 0x04
     f0c:	9c 01       	movw	r18, r24
     f0e:	ad 01       	movw	r20, r26
     f10:	44 27       	eor	r20, r20
     f12:	55 27       	eor	r21, r21
     f14:	89 81       	ldd	r24, Y+1	; 0x01
     f16:	9a 81       	ldd	r25, Y+2	; 0x02
     f18:	ab 81       	ldd	r26, Y+3	; 0x03
     f1a:	bc 81       	ldd	r27, Y+4	; 0x04
     f1c:	cd 01       	movw	r24, r26
     f1e:	aa 27       	eor	r26, r26
     f20:	bb 27       	eor	r27, r27
     f22:	82 0f       	add	r24, r18
     f24:	93 1f       	adc	r25, r19
     f26:	a4 1f       	adc	r26, r20
     f28:	b5 1f       	adc	r27, r21
     f2a:	89 83       	std	Y+1, r24	; 0x01
     f2c:	9a 83       	std	Y+2, r25	; 0x02
     f2e:	ab 83       	std	Y+3, r26	; 0x03
     f30:	bc 83       	std	Y+4, r27	; 0x04
     f32:	01 c0       	rjmp	.+2      	; 0xf36 <checksum+0x182>
     f34:	00 00       	nop
     f36:	89 81       	ldd	r24, Y+1	; 0x01
     f38:	9a 81       	ldd	r25, Y+2	; 0x02
     f3a:	ab 81       	ldd	r26, Y+3	; 0x03
     f3c:	bc 81       	ldd	r27, Y+4	; 0x04
     f3e:	cd 01       	movw	r24, r26
     f40:	aa 27       	eor	r26, r26
     f42:	bb 27       	eor	r27, r27
     f44:	00 97       	sbiw	r24, 0x00	; 0
     f46:	a1 05       	cpc	r26, r1
     f48:	b1 05       	cpc	r27, r1
     f4a:	e1 f6       	brne	.-72     	; 0xf04 <checksum+0x150>
     f4c:	89 81       	ldd	r24, Y+1	; 0x01
     f4e:	9a 81       	ldd	r25, Y+2	; 0x02
     f50:	80 95       	com	r24
     f52:	90 95       	com	r25
     f54:	29 96       	adiw	r28, 0x09	; 9
     f56:	0f b6       	in	r0, 0x3f	; 63
     f58:	f8 94       	cli
     f5a:	de bf       	out	0x3e, r29	; 62
     f5c:	0f be       	out	0x3f, r0	; 63
     f5e:	cd bf       	out	0x3d, r28	; 61
     f60:	df 91       	pop	r29
     f62:	cf 91       	pop	r28
     f64:	08 95       	ret

00000f66 <init_mac>:
     f66:	cf 93       	push	r28
     f68:	df 93       	push	r29
     f6a:	00 d0       	rcall	.+0      	; 0xf6c <init_mac+0x6>
     f6c:	cd b7       	in	r28, 0x3d	; 61
     f6e:	de b7       	in	r29, 0x3e	; 62
     f70:	9a 83       	std	Y+2, r25	; 0x02
     f72:	89 83       	std	Y+1, r24	; 0x01
     f74:	89 81       	ldd	r24, Y+1	; 0x01
     f76:	9a 81       	ldd	r25, Y+2	; 0x02
     f78:	00 97       	sbiw	r24, 0x00	; 0
     f7a:	51 f0       	breq	.+20     	; 0xf90 <init_mac+0x2a>
     f7c:	89 81       	ldd	r24, Y+1	; 0x01
     f7e:	9a 81       	ldd	r25, Y+2	; 0x02
     f80:	26 e0       	ldi	r18, 0x06	; 6
     f82:	fc 01       	movw	r30, r24
     f84:	a0 e1       	ldi	r26, 0x10	; 16
     f86:	b3 e0       	ldi	r27, 0x03	; 3
     f88:	01 90       	ld	r0, Z+
     f8a:	0d 92       	st	X+, r0
     f8c:	2a 95       	dec	r18
     f8e:	e1 f7       	brne	.-8      	; 0xf88 <init_mac+0x22>
     f90:	0f 90       	pop	r0
     f92:	0f 90       	pop	r0
     f94:	df 91       	pop	r29
     f96:	cf 91       	pop	r28
     f98:	08 95       	ret

00000f9a <eth_type_is_arp_and_my_ip>:
     f9a:	cf 93       	push	r28
     f9c:	df 93       	push	r29
     f9e:	00 d0       	rcall	.+0      	; 0xfa0 <eth_type_is_arp_and_my_ip+0x6>
     fa0:	00 d0       	rcall	.+0      	; 0xfa2 <eth_type_is_arp_and_my_ip+0x8>
     fa2:	1f 92       	push	r1
     fa4:	cd b7       	in	r28, 0x3d	; 61
     fa6:	de b7       	in	r29, 0x3e	; 62
     fa8:	9b 83       	std	Y+3, r25	; 0x03
     faa:	8a 83       	std	Y+2, r24	; 0x02
     fac:	7d 83       	std	Y+5, r23	; 0x05
     fae:	6c 83       	std	Y+4, r22	; 0x04
     fb0:	19 82       	std	Y+1, r1	; 0x01
     fb2:	8c 81       	ldd	r24, Y+4	; 0x04
     fb4:	9d 81       	ldd	r25, Y+5	; 0x05
     fb6:	89 32       	cpi	r24, 0x29	; 41
     fb8:	91 05       	cpc	r25, r1
     fba:	10 f4       	brcc	.+4      	; 0xfc0 <eth_type_is_arp_and_my_ip+0x26>
     fbc:	80 e0       	ldi	r24, 0x00	; 0
     fbe:	2c c0       	rjmp	.+88     	; 0x1018 <eth_type_is_arp_and_my_ip+0x7e>
     fc0:	8a 81       	ldd	r24, Y+2	; 0x02
     fc2:	9b 81       	ldd	r25, Y+3	; 0x03
     fc4:	0c 96       	adiw	r24, 0x0c	; 12
     fc6:	fc 01       	movw	r30, r24
     fc8:	80 81       	ld	r24, Z
     fca:	88 30       	cpi	r24, 0x08	; 8
     fcc:	39 f4       	brne	.+14     	; 0xfdc <eth_type_is_arp_and_my_ip+0x42>
     fce:	8a 81       	ldd	r24, Y+2	; 0x02
     fd0:	9b 81       	ldd	r25, Y+3	; 0x03
     fd2:	0d 96       	adiw	r24, 0x0d	; 13
     fd4:	fc 01       	movw	r30, r24
     fd6:	80 81       	ld	r24, Z
     fd8:	86 30       	cpi	r24, 0x06	; 6
     fda:	d1 f0       	breq	.+52     	; 0x1010 <eth_type_is_arp_and_my_ip+0x76>
     fdc:	80 e0       	ldi	r24, 0x00	; 0
     fde:	1c c0       	rjmp	.+56     	; 0x1018 <eth_type_is_arp_and_my_ip+0x7e>
     fe0:	89 81       	ldd	r24, Y+1	; 0x01
     fe2:	88 2f       	mov	r24, r24
     fe4:	90 e0       	ldi	r25, 0x00	; 0
     fe6:	86 96       	adiw	r24, 0x26	; 38
     fe8:	2a 81       	ldd	r18, Y+2	; 0x02
     fea:	3b 81       	ldd	r19, Y+3	; 0x03
     fec:	82 0f       	add	r24, r18
     fee:	93 1f       	adc	r25, r19
     ff0:	fc 01       	movw	r30, r24
     ff2:	20 81       	ld	r18, Z
     ff4:	89 81       	ldd	r24, Y+1	; 0x01
     ff6:	88 2f       	mov	r24, r24
     ff8:	90 e0       	ldi	r25, 0x00	; 0
     ffa:	8a 5e       	subi	r24, 0xEA	; 234
     ffc:	9c 4f       	sbci	r25, 0xFC	; 252
     ffe:	fc 01       	movw	r30, r24
    1000:	80 81       	ld	r24, Z
    1002:	28 17       	cp	r18, r24
    1004:	11 f0       	breq	.+4      	; 0x100a <eth_type_is_arp_and_my_ip+0x70>
    1006:	80 e0       	ldi	r24, 0x00	; 0
    1008:	07 c0       	rjmp	.+14     	; 0x1018 <eth_type_is_arp_and_my_ip+0x7e>
    100a:	89 81       	ldd	r24, Y+1	; 0x01
    100c:	8f 5f       	subi	r24, 0xFF	; 255
    100e:	89 83       	std	Y+1, r24	; 0x01
    1010:	89 81       	ldd	r24, Y+1	; 0x01
    1012:	84 30       	cpi	r24, 0x04	; 4
    1014:	28 f3       	brcs	.-54     	; 0xfe0 <eth_type_is_arp_and_my_ip+0x46>
    1016:	81 e0       	ldi	r24, 0x01	; 1
    1018:	0f 90       	pop	r0
    101a:	0f 90       	pop	r0
    101c:	0f 90       	pop	r0
    101e:	0f 90       	pop	r0
    1020:	0f 90       	pop	r0
    1022:	df 91       	pop	r29
    1024:	cf 91       	pop	r28
    1026:	08 95       	ret

00001028 <eth_type_is_ip_and_my_ip>:
    1028:	cf 93       	push	r28
    102a:	df 93       	push	r29
    102c:	00 d0       	rcall	.+0      	; 0x102e <eth_type_is_ip_and_my_ip+0x6>
    102e:	00 d0       	rcall	.+0      	; 0x1030 <eth_type_is_ip_and_my_ip+0x8>
    1030:	1f 92       	push	r1
    1032:	cd b7       	in	r28, 0x3d	; 61
    1034:	de b7       	in	r29, 0x3e	; 62
    1036:	9b 83       	std	Y+3, r25	; 0x03
    1038:	8a 83       	std	Y+2, r24	; 0x02
    103a:	7d 83       	std	Y+5, r23	; 0x05
    103c:	6c 83       	std	Y+4, r22	; 0x04
    103e:	19 82       	std	Y+1, r1	; 0x01
    1040:	8c 81       	ldd	r24, Y+4	; 0x04
    1042:	9d 81       	ldd	r25, Y+5	; 0x05
    1044:	8a 32       	cpi	r24, 0x2A	; 42
    1046:	91 05       	cpc	r25, r1
    1048:	10 f4       	brcc	.+4      	; 0x104e <eth_type_is_ip_and_my_ip+0x26>
    104a:	80 e0       	ldi	r24, 0x00	; 0
    104c:	35 c0       	rjmp	.+106    	; 0x10b8 <eth_type_is_ip_and_my_ip+0x90>
    104e:	8a 81       	ldd	r24, Y+2	; 0x02
    1050:	9b 81       	ldd	r25, Y+3	; 0x03
    1052:	0c 96       	adiw	r24, 0x0c	; 12
    1054:	fc 01       	movw	r30, r24
    1056:	80 81       	ld	r24, Z
    1058:	88 30       	cpi	r24, 0x08	; 8
    105a:	39 f4       	brne	.+14     	; 0x106a <eth_type_is_ip_and_my_ip+0x42>
    105c:	8a 81       	ldd	r24, Y+2	; 0x02
    105e:	9b 81       	ldd	r25, Y+3	; 0x03
    1060:	0d 96       	adiw	r24, 0x0d	; 13
    1062:	fc 01       	movw	r30, r24
    1064:	80 81       	ld	r24, Z
    1066:	88 23       	and	r24, r24
    1068:	11 f0       	breq	.+4      	; 0x106e <eth_type_is_ip_and_my_ip+0x46>
    106a:	80 e0       	ldi	r24, 0x00	; 0
    106c:	25 c0       	rjmp	.+74     	; 0x10b8 <eth_type_is_ip_and_my_ip+0x90>
    106e:	8a 81       	ldd	r24, Y+2	; 0x02
    1070:	9b 81       	ldd	r25, Y+3	; 0x03
    1072:	0e 96       	adiw	r24, 0x0e	; 14
    1074:	fc 01       	movw	r30, r24
    1076:	80 81       	ld	r24, Z
    1078:	85 34       	cpi	r24, 0x45	; 69
    107a:	d1 f0       	breq	.+52     	; 0x10b0 <eth_type_is_ip_and_my_ip+0x88>
    107c:	80 e0       	ldi	r24, 0x00	; 0
    107e:	1c c0       	rjmp	.+56     	; 0x10b8 <eth_type_is_ip_and_my_ip+0x90>
    1080:	89 81       	ldd	r24, Y+1	; 0x01
    1082:	88 2f       	mov	r24, r24
    1084:	90 e0       	ldi	r25, 0x00	; 0
    1086:	4e 96       	adiw	r24, 0x1e	; 30
    1088:	2a 81       	ldd	r18, Y+2	; 0x02
    108a:	3b 81       	ldd	r19, Y+3	; 0x03
    108c:	82 0f       	add	r24, r18
    108e:	93 1f       	adc	r25, r19
    1090:	fc 01       	movw	r30, r24
    1092:	20 81       	ld	r18, Z
    1094:	89 81       	ldd	r24, Y+1	; 0x01
    1096:	88 2f       	mov	r24, r24
    1098:	90 e0       	ldi	r25, 0x00	; 0
    109a:	8a 5e       	subi	r24, 0xEA	; 234
    109c:	9c 4f       	sbci	r25, 0xFC	; 252
    109e:	fc 01       	movw	r30, r24
    10a0:	80 81       	ld	r24, Z
    10a2:	28 17       	cp	r18, r24
    10a4:	11 f0       	breq	.+4      	; 0x10aa <eth_type_is_ip_and_my_ip+0x82>
    10a6:	80 e0       	ldi	r24, 0x00	; 0
    10a8:	07 c0       	rjmp	.+14     	; 0x10b8 <eth_type_is_ip_and_my_ip+0x90>
    10aa:	89 81       	ldd	r24, Y+1	; 0x01
    10ac:	8f 5f       	subi	r24, 0xFF	; 255
    10ae:	89 83       	std	Y+1, r24	; 0x01
    10b0:	89 81       	ldd	r24, Y+1	; 0x01
    10b2:	84 30       	cpi	r24, 0x04	; 4
    10b4:	28 f3       	brcs	.-54     	; 0x1080 <eth_type_is_ip_and_my_ip+0x58>
    10b6:	81 e0       	ldi	r24, 0x01	; 1
    10b8:	0f 90       	pop	r0
    10ba:	0f 90       	pop	r0
    10bc:	0f 90       	pop	r0
    10be:	0f 90       	pop	r0
    10c0:	0f 90       	pop	r0
    10c2:	df 91       	pop	r29
    10c4:	cf 91       	pop	r28
    10c6:	08 95       	ret

000010c8 <make_eth>:
    10c8:	cf 93       	push	r28
    10ca:	df 93       	push	r29
    10cc:	00 d0       	rcall	.+0      	; 0x10ce <make_eth+0x6>
    10ce:	1f 92       	push	r1
    10d0:	cd b7       	in	r28, 0x3d	; 61
    10d2:	de b7       	in	r29, 0x3e	; 62
    10d4:	9b 83       	std	Y+3, r25	; 0x03
    10d6:	8a 83       	std	Y+2, r24	; 0x02
    10d8:	19 82       	std	Y+1, r1	; 0x01
    10da:	28 c0       	rjmp	.+80     	; 0x112c <make_eth+0x64>
    10dc:	89 81       	ldd	r24, Y+1	; 0x01
    10de:	88 2f       	mov	r24, r24
    10e0:	90 e0       	ldi	r25, 0x00	; 0
    10e2:	2a 81       	ldd	r18, Y+2	; 0x02
    10e4:	3b 81       	ldd	r19, Y+3	; 0x03
    10e6:	82 0f       	add	r24, r18
    10e8:	93 1f       	adc	r25, r19
    10ea:	29 81       	ldd	r18, Y+1	; 0x01
    10ec:	22 2f       	mov	r18, r18
    10ee:	30 e0       	ldi	r19, 0x00	; 0
    10f0:	2a 5f       	subi	r18, 0xFA	; 250
    10f2:	3f 4f       	sbci	r19, 0xFF	; 255
    10f4:	4a 81       	ldd	r20, Y+2	; 0x02
    10f6:	5b 81       	ldd	r21, Y+3	; 0x03
    10f8:	24 0f       	add	r18, r20
    10fa:	35 1f       	adc	r19, r21
    10fc:	f9 01       	movw	r30, r18
    10fe:	20 81       	ld	r18, Z
    1100:	fc 01       	movw	r30, r24
    1102:	20 83       	st	Z, r18
    1104:	89 81       	ldd	r24, Y+1	; 0x01
    1106:	88 2f       	mov	r24, r24
    1108:	90 e0       	ldi	r25, 0x00	; 0
    110a:	06 96       	adiw	r24, 0x06	; 6
    110c:	2a 81       	ldd	r18, Y+2	; 0x02
    110e:	3b 81       	ldd	r19, Y+3	; 0x03
    1110:	82 0f       	add	r24, r18
    1112:	93 1f       	adc	r25, r19
    1114:	29 81       	ldd	r18, Y+1	; 0x01
    1116:	22 2f       	mov	r18, r18
    1118:	30 e0       	ldi	r19, 0x00	; 0
    111a:	20 5f       	subi	r18, 0xF0	; 240
    111c:	3c 4f       	sbci	r19, 0xFC	; 252
    111e:	f9 01       	movw	r30, r18
    1120:	20 81       	ld	r18, Z
    1122:	fc 01       	movw	r30, r24
    1124:	20 83       	st	Z, r18
    1126:	89 81       	ldd	r24, Y+1	; 0x01
    1128:	8f 5f       	subi	r24, 0xFF	; 255
    112a:	89 83       	std	Y+1, r24	; 0x01
    112c:	89 81       	ldd	r24, Y+1	; 0x01
    112e:	86 30       	cpi	r24, 0x06	; 6
    1130:	a8 f2       	brcs	.-86     	; 0x10dc <make_eth+0x14>
    1132:	0f 90       	pop	r0
    1134:	0f 90       	pop	r0
    1136:	0f 90       	pop	r0
    1138:	df 91       	pop	r29
    113a:	cf 91       	pop	r28
    113c:	08 95       	ret

0000113e <fill_ip_hdr_checksum>:
    113e:	cf 93       	push	r28
    1140:	df 93       	push	r29
    1142:	00 d0       	rcall	.+0      	; 0x1144 <fill_ip_hdr_checksum+0x6>
    1144:	00 d0       	rcall	.+0      	; 0x1146 <fill_ip_hdr_checksum+0x8>
    1146:	cd b7       	in	r28, 0x3d	; 61
    1148:	de b7       	in	r29, 0x3e	; 62
    114a:	9c 83       	std	Y+4, r25	; 0x04
    114c:	8b 83       	std	Y+3, r24	; 0x03
    114e:	8b 81       	ldd	r24, Y+3	; 0x03
    1150:	9c 81       	ldd	r25, Y+4	; 0x04
    1152:	48 96       	adiw	r24, 0x18	; 24
    1154:	fc 01       	movw	r30, r24
    1156:	10 82       	st	Z, r1
    1158:	8b 81       	ldd	r24, Y+3	; 0x03
    115a:	9c 81       	ldd	r25, Y+4	; 0x04
    115c:	49 96       	adiw	r24, 0x19	; 25
    115e:	fc 01       	movw	r30, r24
    1160:	10 82       	st	Z, r1
    1162:	8b 81       	ldd	r24, Y+3	; 0x03
    1164:	9c 81       	ldd	r25, Y+4	; 0x04
    1166:	44 96       	adiw	r24, 0x14	; 20
    1168:	20 e4       	ldi	r18, 0x40	; 64
    116a:	fc 01       	movw	r30, r24
    116c:	20 83       	st	Z, r18
    116e:	8b 81       	ldd	r24, Y+3	; 0x03
    1170:	9c 81       	ldd	r25, Y+4	; 0x04
    1172:	45 96       	adiw	r24, 0x15	; 21
    1174:	fc 01       	movw	r30, r24
    1176:	10 82       	st	Z, r1
    1178:	8b 81       	ldd	r24, Y+3	; 0x03
    117a:	9c 81       	ldd	r25, Y+4	; 0x04
    117c:	46 96       	adiw	r24, 0x16	; 22
    117e:	20 e4       	ldi	r18, 0x40	; 64
    1180:	fc 01       	movw	r30, r24
    1182:	20 83       	st	Z, r18
    1184:	8b 81       	ldd	r24, Y+3	; 0x03
    1186:	9c 81       	ldd	r25, Y+4	; 0x04
    1188:	0e 96       	adiw	r24, 0x0e	; 14
    118a:	40 e0       	ldi	r20, 0x00	; 0
    118c:	64 e1       	ldi	r22, 0x14	; 20
    118e:	70 e0       	ldi	r23, 0x00	; 0
    1190:	11 de       	rcall	.-990    	; 0xdb4 <checksum>
    1192:	9a 83       	std	Y+2, r25	; 0x02
    1194:	89 83       	std	Y+1, r24	; 0x01
    1196:	8b 81       	ldd	r24, Y+3	; 0x03
    1198:	9c 81       	ldd	r25, Y+4	; 0x04
    119a:	48 96       	adiw	r24, 0x18	; 24
    119c:	29 81       	ldd	r18, Y+1	; 0x01
    119e:	3a 81       	ldd	r19, Y+2	; 0x02
    11a0:	23 2f       	mov	r18, r19
    11a2:	33 27       	eor	r19, r19
    11a4:	fc 01       	movw	r30, r24
    11a6:	20 83       	st	Z, r18
    11a8:	8b 81       	ldd	r24, Y+3	; 0x03
    11aa:	9c 81       	ldd	r25, Y+4	; 0x04
    11ac:	49 96       	adiw	r24, 0x19	; 25
    11ae:	29 81       	ldd	r18, Y+1	; 0x01
    11b0:	fc 01       	movw	r30, r24
    11b2:	20 83       	st	Z, r18
    11b4:	0f 90       	pop	r0
    11b6:	0f 90       	pop	r0
    11b8:	0f 90       	pop	r0
    11ba:	0f 90       	pop	r0
    11bc:	df 91       	pop	r29
    11be:	cf 91       	pop	r28
    11c0:	08 95       	ret

000011c2 <make_ip>:
    11c2:	cf 93       	push	r28
    11c4:	df 93       	push	r29
    11c6:	00 d0       	rcall	.+0      	; 0x11c8 <make_ip+0x6>
    11c8:	1f 92       	push	r1
    11ca:	cd b7       	in	r28, 0x3d	; 61
    11cc:	de b7       	in	r29, 0x3e	; 62
    11ce:	9b 83       	std	Y+3, r25	; 0x03
    11d0:	8a 83       	std	Y+2, r24	; 0x02
    11d2:	19 82       	std	Y+1, r1	; 0x01
    11d4:	29 c0       	rjmp	.+82     	; 0x1228 <make_ip+0x66>
    11d6:	89 81       	ldd	r24, Y+1	; 0x01
    11d8:	88 2f       	mov	r24, r24
    11da:	90 e0       	ldi	r25, 0x00	; 0
    11dc:	4e 96       	adiw	r24, 0x1e	; 30
    11de:	2a 81       	ldd	r18, Y+2	; 0x02
    11e0:	3b 81       	ldd	r19, Y+3	; 0x03
    11e2:	82 0f       	add	r24, r18
    11e4:	93 1f       	adc	r25, r19
    11e6:	29 81       	ldd	r18, Y+1	; 0x01
    11e8:	22 2f       	mov	r18, r18
    11ea:	30 e0       	ldi	r19, 0x00	; 0
    11ec:	26 5e       	subi	r18, 0xE6	; 230
    11ee:	3f 4f       	sbci	r19, 0xFF	; 255
    11f0:	4a 81       	ldd	r20, Y+2	; 0x02
    11f2:	5b 81       	ldd	r21, Y+3	; 0x03
    11f4:	24 0f       	add	r18, r20
    11f6:	35 1f       	adc	r19, r21
    11f8:	f9 01       	movw	r30, r18
    11fa:	20 81       	ld	r18, Z
    11fc:	fc 01       	movw	r30, r24
    11fe:	20 83       	st	Z, r18
    1200:	89 81       	ldd	r24, Y+1	; 0x01
    1202:	88 2f       	mov	r24, r24
    1204:	90 e0       	ldi	r25, 0x00	; 0
    1206:	4a 96       	adiw	r24, 0x1a	; 26
    1208:	2a 81       	ldd	r18, Y+2	; 0x02
    120a:	3b 81       	ldd	r19, Y+3	; 0x03
    120c:	82 0f       	add	r24, r18
    120e:	93 1f       	adc	r25, r19
    1210:	29 81       	ldd	r18, Y+1	; 0x01
    1212:	22 2f       	mov	r18, r18
    1214:	30 e0       	ldi	r19, 0x00	; 0
    1216:	2a 5e       	subi	r18, 0xEA	; 234
    1218:	3c 4f       	sbci	r19, 0xFC	; 252
    121a:	f9 01       	movw	r30, r18
    121c:	20 81       	ld	r18, Z
    121e:	fc 01       	movw	r30, r24
    1220:	20 83       	st	Z, r18
    1222:	89 81       	ldd	r24, Y+1	; 0x01
    1224:	8f 5f       	subi	r24, 0xFF	; 255
    1226:	89 83       	std	Y+1, r24	; 0x01
    1228:	89 81       	ldd	r24, Y+1	; 0x01
    122a:	84 30       	cpi	r24, 0x04	; 4
    122c:	a0 f2       	brcs	.-88     	; 0x11d6 <make_ip+0x14>
    122e:	8a 81       	ldd	r24, Y+2	; 0x02
    1230:	9b 81       	ldd	r25, Y+3	; 0x03
    1232:	85 df       	rcall	.-246    	; 0x113e <fill_ip_hdr_checksum>
    1234:	0f 90       	pop	r0
    1236:	0f 90       	pop	r0
    1238:	0f 90       	pop	r0
    123a:	df 91       	pop	r29
    123c:	cf 91       	pop	r28
    123e:	08 95       	ret

00001240 <step_seq>:
    1240:	cf 93       	push	r28
    1242:	df 93       	push	r29
    1244:	cd b7       	in	r28, 0x3d	; 61
    1246:	de b7       	in	r29, 0x3e	; 62
    1248:	27 97       	sbiw	r28, 0x07	; 7
    124a:	0f b6       	in	r0, 0x3f	; 63
    124c:	f8 94       	cli
    124e:	de bf       	out	0x3e, r29	; 62
    1250:	0f be       	out	0x3f, r0	; 63
    1252:	cd bf       	out	0x3d, r28	; 61
    1254:	9c 83       	std	Y+4, r25	; 0x04
    1256:	8b 83       	std	Y+3, r24	; 0x03
    1258:	7e 83       	std	Y+6, r23	; 0x06
    125a:	6d 83       	std	Y+5, r22	; 0x05
    125c:	4f 83       	std	Y+7, r20	; 0x07
    125e:	84 e0       	ldi	r24, 0x04	; 4
    1260:	89 83       	std	Y+1, r24	; 0x01
    1262:	4a c0       	rjmp	.+148    	; 0x12f8 <step_seq+0xb8>
    1264:	89 81       	ldd	r24, Y+1	; 0x01
    1266:	88 2f       	mov	r24, r24
    1268:	90 e0       	ldi	r25, 0x00	; 0
    126a:	85 96       	adiw	r24, 0x25	; 37
    126c:	2b 81       	ldd	r18, Y+3	; 0x03
    126e:	3c 81       	ldd	r19, Y+4	; 0x04
    1270:	82 0f       	add	r24, r18
    1272:	93 1f       	adc	r25, r19
    1274:	fc 01       	movw	r30, r24
    1276:	80 81       	ld	r24, Z
    1278:	88 2f       	mov	r24, r24
    127a:	90 e0       	ldi	r25, 0x00	; 0
    127c:	2d 81       	ldd	r18, Y+5	; 0x05
    127e:	3e 81       	ldd	r19, Y+6	; 0x06
    1280:	82 0f       	add	r24, r18
    1282:	93 1f       	adc	r25, r19
    1284:	9e 83       	std	Y+6, r25	; 0x06
    1286:	8d 83       	std	Y+5, r24	; 0x05
    1288:	89 81       	ldd	r24, Y+1	; 0x01
    128a:	88 2f       	mov	r24, r24
    128c:	90 e0       	ldi	r25, 0x00	; 0
    128e:	89 96       	adiw	r24, 0x29	; 41
    1290:	2b 81       	ldd	r18, Y+3	; 0x03
    1292:	3c 81       	ldd	r19, Y+4	; 0x04
    1294:	82 0f       	add	r24, r18
    1296:	93 1f       	adc	r25, r19
    1298:	fc 01       	movw	r30, r24
    129a:	80 81       	ld	r24, Z
    129c:	8a 83       	std	Y+2, r24	; 0x02
    129e:	89 81       	ldd	r24, Y+1	; 0x01
    12a0:	88 2f       	mov	r24, r24
    12a2:	90 e0       	ldi	r25, 0x00	; 0
    12a4:	89 96       	adiw	r24, 0x29	; 41
    12a6:	2b 81       	ldd	r18, Y+3	; 0x03
    12a8:	3c 81       	ldd	r19, Y+4	; 0x04
    12aa:	82 0f       	add	r24, r18
    12ac:	93 1f       	adc	r25, r19
    12ae:	2d 81       	ldd	r18, Y+5	; 0x05
    12b0:	fc 01       	movw	r30, r24
    12b2:	20 83       	st	Z, r18
    12b4:	8f 81       	ldd	r24, Y+7	; 0x07
    12b6:	88 23       	and	r24, r24
    12b8:	61 f0       	breq	.+24     	; 0x12d2 <step_seq+0x92>
    12ba:	89 81       	ldd	r24, Y+1	; 0x01
    12bc:	88 2f       	mov	r24, r24
    12be:	90 e0       	ldi	r25, 0x00	; 0
    12c0:	85 96       	adiw	r24, 0x25	; 37
    12c2:	2b 81       	ldd	r18, Y+3	; 0x03
    12c4:	3c 81       	ldd	r19, Y+4	; 0x04
    12c6:	82 0f       	add	r24, r18
    12c8:	93 1f       	adc	r25, r19
    12ca:	2a 81       	ldd	r18, Y+2	; 0x02
    12cc:	fc 01       	movw	r30, r24
    12ce:	20 83       	st	Z, r18
    12d0:	0a c0       	rjmp	.+20     	; 0x12e6 <step_seq+0xa6>
    12d2:	89 81       	ldd	r24, Y+1	; 0x01
    12d4:	88 2f       	mov	r24, r24
    12d6:	90 e0       	ldi	r25, 0x00	; 0
    12d8:	85 96       	adiw	r24, 0x25	; 37
    12da:	2b 81       	ldd	r18, Y+3	; 0x03
    12dc:	3c 81       	ldd	r19, Y+4	; 0x04
    12de:	82 0f       	add	r24, r18
    12e0:	93 1f       	adc	r25, r19
    12e2:	fc 01       	movw	r30, r24
    12e4:	10 82       	st	Z, r1
    12e6:	8d 81       	ldd	r24, Y+5	; 0x05
    12e8:	9e 81       	ldd	r25, Y+6	; 0x06
    12ea:	89 2f       	mov	r24, r25
    12ec:	99 27       	eor	r25, r25
    12ee:	9e 83       	std	Y+6, r25	; 0x06
    12f0:	8d 83       	std	Y+5, r24	; 0x05
    12f2:	89 81       	ldd	r24, Y+1	; 0x01
    12f4:	81 50       	subi	r24, 0x01	; 1
    12f6:	89 83       	std	Y+1, r24	; 0x01
    12f8:	89 81       	ldd	r24, Y+1	; 0x01
    12fa:	88 23       	and	r24, r24
    12fc:	09 f0       	breq	.+2      	; 0x1300 <step_seq+0xc0>
    12fe:	b2 cf       	rjmp	.-156    	; 0x1264 <step_seq+0x24>
    1300:	27 96       	adiw	r28, 0x07	; 7
    1302:	0f b6       	in	r0, 0x3f	; 63
    1304:	f8 94       	cli
    1306:	de bf       	out	0x3e, r29	; 62
    1308:	0f be       	out	0x3f, r0	; 63
    130a:	cd bf       	out	0x3d, r28	; 61
    130c:	df 91       	pop	r29
    130e:	cf 91       	pop	r28
    1310:	08 95       	ret

00001312 <make_tcphead>:
    1312:	cf 93       	push	r28
    1314:	df 93       	push	r29
    1316:	00 d0       	rcall	.+0      	; 0x1318 <make_tcphead+0x6>
    1318:	00 d0       	rcall	.+0      	; 0x131a <make_tcphead+0x8>
    131a:	00 d0       	rcall	.+0      	; 0x131c <make_tcphead+0xa>
    131c:	cd b7       	in	r28, 0x3d	; 61
    131e:	de b7       	in	r29, 0x3e	; 62
    1320:	9b 83       	std	Y+3, r25	; 0x03
    1322:	8a 83       	std	Y+2, r24	; 0x02
    1324:	7d 83       	std	Y+5, r23	; 0x05
    1326:	6c 83       	std	Y+4, r22	; 0x04
    1328:	4e 83       	std	Y+6, r20	; 0x06
    132a:	8a 81       	ldd	r24, Y+2	; 0x02
    132c:	9b 81       	ldd	r25, Y+3	; 0x03
    132e:	fc 01       	movw	r30, r24
    1330:	84 a1       	ldd	r24, Z+36	; 0x24
    1332:	89 83       	std	Y+1, r24	; 0x01
    1334:	8a 81       	ldd	r24, Y+2	; 0x02
    1336:	9b 81       	ldd	r25, Y+3	; 0x03
    1338:	84 96       	adiw	r24, 0x24	; 36
    133a:	2a 81       	ldd	r18, Y+2	; 0x02
    133c:	3b 81       	ldd	r19, Y+3	; 0x03
    133e:	f9 01       	movw	r30, r18
    1340:	22 a1       	ldd	r18, Z+34	; 0x22
    1342:	fc 01       	movw	r30, r24
    1344:	20 83       	st	Z, r18
    1346:	8a 81       	ldd	r24, Y+2	; 0x02
    1348:	9b 81       	ldd	r25, Y+3	; 0x03
    134a:	82 96       	adiw	r24, 0x22	; 34
    134c:	29 81       	ldd	r18, Y+1	; 0x01
    134e:	fc 01       	movw	r30, r24
    1350:	20 83       	st	Z, r18
    1352:	8a 81       	ldd	r24, Y+2	; 0x02
    1354:	9b 81       	ldd	r25, Y+3	; 0x03
    1356:	fc 01       	movw	r30, r24
    1358:	85 a1       	ldd	r24, Z+37	; 0x25
    135a:	89 83       	std	Y+1, r24	; 0x01
    135c:	8a 81       	ldd	r24, Y+2	; 0x02
    135e:	9b 81       	ldd	r25, Y+3	; 0x03
    1360:	85 96       	adiw	r24, 0x25	; 37
    1362:	2a 81       	ldd	r18, Y+2	; 0x02
    1364:	3b 81       	ldd	r19, Y+3	; 0x03
    1366:	f9 01       	movw	r30, r18
    1368:	23 a1       	ldd	r18, Z+35	; 0x23
    136a:	fc 01       	movw	r30, r24
    136c:	20 83       	st	Z, r18
    136e:	8a 81       	ldd	r24, Y+2	; 0x02
    1370:	9b 81       	ldd	r25, Y+3	; 0x03
    1372:	83 96       	adiw	r24, 0x23	; 35
    1374:	29 81       	ldd	r18, Y+1	; 0x01
    1376:	fc 01       	movw	r30, r24
    1378:	20 83       	st	Z, r18
    137a:	2c 81       	ldd	r18, Y+4	; 0x04
    137c:	3d 81       	ldd	r19, Y+5	; 0x05
    137e:	8a 81       	ldd	r24, Y+2	; 0x02
    1380:	9b 81       	ldd	r25, Y+3	; 0x03
    1382:	4e 81       	ldd	r20, Y+6	; 0x06
    1384:	b9 01       	movw	r22, r18
    1386:	5c df       	rcall	.-328    	; 0x1240 <step_seq>
    1388:	8a 81       	ldd	r24, Y+2	; 0x02
    138a:	9b 81       	ldd	r25, Y+3	; 0x03
    138c:	c2 96       	adiw	r24, 0x32	; 50
    138e:	fc 01       	movw	r30, r24
    1390:	10 82       	st	Z, r1
    1392:	8a 81       	ldd	r24, Y+2	; 0x02
    1394:	9b 81       	ldd	r25, Y+3	; 0x03
    1396:	c3 96       	adiw	r24, 0x33	; 51
    1398:	fc 01       	movw	r30, r24
    139a:	10 82       	st	Z, r1
    139c:	8a 81       	ldd	r24, Y+2	; 0x02
    139e:	9b 81       	ldd	r25, Y+3	; 0x03
    13a0:	8e 96       	adiw	r24, 0x2e	; 46
    13a2:	20 e5       	ldi	r18, 0x50	; 80
    13a4:	fc 01       	movw	r30, r24
    13a6:	20 83       	st	Z, r18
    13a8:	26 96       	adiw	r28, 0x06	; 6
    13aa:	0f b6       	in	r0, 0x3f	; 63
    13ac:	f8 94       	cli
    13ae:	de bf       	out	0x3e, r29	; 62
    13b0:	0f be       	out	0x3f, r0	; 63
    13b2:	cd bf       	out	0x3d, r28	; 61
    13b4:	df 91       	pop	r29
    13b6:	cf 91       	pop	r28
    13b8:	08 95       	ret

000013ba <make_arp_answer_from_request>:
    13ba:	cf 93       	push	r28
    13bc:	df 93       	push	r29
    13be:	00 d0       	rcall	.+0      	; 0x13c0 <make_arp_answer_from_request+0x6>
    13c0:	1f 92       	push	r1
    13c2:	cd b7       	in	r28, 0x3d	; 61
    13c4:	de b7       	in	r29, 0x3e	; 62
    13c6:	9b 83       	std	Y+3, r25	; 0x03
    13c8:	8a 83       	std	Y+2, r24	; 0x02
    13ca:	19 82       	std	Y+1, r1	; 0x01
    13cc:	8a 81       	ldd	r24, Y+2	; 0x02
    13ce:	9b 81       	ldd	r25, Y+3	; 0x03
    13d0:	7b de       	rcall	.-778    	; 0x10c8 <make_eth>
    13d2:	8a 81       	ldd	r24, Y+2	; 0x02
    13d4:	9b 81       	ldd	r25, Y+3	; 0x03
    13d6:	44 96       	adiw	r24, 0x14	; 20
    13d8:	fc 01       	movw	r30, r24
    13da:	10 82       	st	Z, r1
    13dc:	8a 81       	ldd	r24, Y+2	; 0x02
    13de:	9b 81       	ldd	r25, Y+3	; 0x03
    13e0:	45 96       	adiw	r24, 0x15	; 21
    13e2:	22 e0       	ldi	r18, 0x02	; 2
    13e4:	fc 01       	movw	r30, r24
    13e6:	20 83       	st	Z, r18
    13e8:	29 c0       	rjmp	.+82     	; 0x143c <make_arp_answer_from_request+0x82>
    13ea:	89 81       	ldd	r24, Y+1	; 0x01
    13ec:	88 2f       	mov	r24, r24
    13ee:	90 e0       	ldi	r25, 0x00	; 0
    13f0:	80 96       	adiw	r24, 0x20	; 32
    13f2:	2a 81       	ldd	r18, Y+2	; 0x02
    13f4:	3b 81       	ldd	r19, Y+3	; 0x03
    13f6:	82 0f       	add	r24, r18
    13f8:	93 1f       	adc	r25, r19
    13fa:	29 81       	ldd	r18, Y+1	; 0x01
    13fc:	22 2f       	mov	r18, r18
    13fe:	30 e0       	ldi	r19, 0x00	; 0
    1400:	2a 5e       	subi	r18, 0xEA	; 234
    1402:	3f 4f       	sbci	r19, 0xFF	; 255
    1404:	4a 81       	ldd	r20, Y+2	; 0x02
    1406:	5b 81       	ldd	r21, Y+3	; 0x03
    1408:	24 0f       	add	r18, r20
    140a:	35 1f       	adc	r19, r21
    140c:	f9 01       	movw	r30, r18
    140e:	20 81       	ld	r18, Z
    1410:	fc 01       	movw	r30, r24
    1412:	20 83       	st	Z, r18
    1414:	89 81       	ldd	r24, Y+1	; 0x01
    1416:	88 2f       	mov	r24, r24
    1418:	90 e0       	ldi	r25, 0x00	; 0
    141a:	46 96       	adiw	r24, 0x16	; 22
    141c:	2a 81       	ldd	r18, Y+2	; 0x02
    141e:	3b 81       	ldd	r19, Y+3	; 0x03
    1420:	82 0f       	add	r24, r18
    1422:	93 1f       	adc	r25, r19
    1424:	29 81       	ldd	r18, Y+1	; 0x01
    1426:	22 2f       	mov	r18, r18
    1428:	30 e0       	ldi	r19, 0x00	; 0
    142a:	20 5f       	subi	r18, 0xF0	; 240
    142c:	3c 4f       	sbci	r19, 0xFC	; 252
    142e:	f9 01       	movw	r30, r18
    1430:	20 81       	ld	r18, Z
    1432:	fc 01       	movw	r30, r24
    1434:	20 83       	st	Z, r18
    1436:	89 81       	ldd	r24, Y+1	; 0x01
    1438:	8f 5f       	subi	r24, 0xFF	; 255
    143a:	89 83       	std	Y+1, r24	; 0x01
    143c:	89 81       	ldd	r24, Y+1	; 0x01
    143e:	86 30       	cpi	r24, 0x06	; 6
    1440:	a0 f2       	brcs	.-88     	; 0x13ea <make_arp_answer_from_request+0x30>
    1442:	19 82       	std	Y+1, r1	; 0x01
    1444:	29 c0       	rjmp	.+82     	; 0x1498 <make_arp_answer_from_request+0xde>
    1446:	89 81       	ldd	r24, Y+1	; 0x01
    1448:	88 2f       	mov	r24, r24
    144a:	90 e0       	ldi	r25, 0x00	; 0
    144c:	86 96       	adiw	r24, 0x26	; 38
    144e:	2a 81       	ldd	r18, Y+2	; 0x02
    1450:	3b 81       	ldd	r19, Y+3	; 0x03
    1452:	82 0f       	add	r24, r18
    1454:	93 1f       	adc	r25, r19
    1456:	29 81       	ldd	r18, Y+1	; 0x01
    1458:	22 2f       	mov	r18, r18
    145a:	30 e0       	ldi	r19, 0x00	; 0
    145c:	24 5e       	subi	r18, 0xE4	; 228
    145e:	3f 4f       	sbci	r19, 0xFF	; 255
    1460:	4a 81       	ldd	r20, Y+2	; 0x02
    1462:	5b 81       	ldd	r21, Y+3	; 0x03
    1464:	24 0f       	add	r18, r20
    1466:	35 1f       	adc	r19, r21
    1468:	f9 01       	movw	r30, r18
    146a:	20 81       	ld	r18, Z
    146c:	fc 01       	movw	r30, r24
    146e:	20 83       	st	Z, r18
    1470:	89 81       	ldd	r24, Y+1	; 0x01
    1472:	88 2f       	mov	r24, r24
    1474:	90 e0       	ldi	r25, 0x00	; 0
    1476:	4c 96       	adiw	r24, 0x1c	; 28
    1478:	2a 81       	ldd	r18, Y+2	; 0x02
    147a:	3b 81       	ldd	r19, Y+3	; 0x03
    147c:	82 0f       	add	r24, r18
    147e:	93 1f       	adc	r25, r19
    1480:	29 81       	ldd	r18, Y+1	; 0x01
    1482:	22 2f       	mov	r18, r18
    1484:	30 e0       	ldi	r19, 0x00	; 0
    1486:	2a 5e       	subi	r18, 0xEA	; 234
    1488:	3c 4f       	sbci	r19, 0xFC	; 252
    148a:	f9 01       	movw	r30, r18
    148c:	20 81       	ld	r18, Z
    148e:	fc 01       	movw	r30, r24
    1490:	20 83       	st	Z, r18
    1492:	89 81       	ldd	r24, Y+1	; 0x01
    1494:	8f 5f       	subi	r24, 0xFF	; 255
    1496:	89 83       	std	Y+1, r24	; 0x01
    1498:	89 81       	ldd	r24, Y+1	; 0x01
    149a:	84 30       	cpi	r24, 0x04	; 4
    149c:	a0 f2       	brcs	.-88     	; 0x1446 <make_arp_answer_from_request+0x8c>
    149e:	8a 81       	ldd	r24, Y+2	; 0x02
    14a0:	9b 81       	ldd	r25, Y+3	; 0x03
    14a2:	bc 01       	movw	r22, r24
    14a4:	8a e2       	ldi	r24, 0x2A	; 42
    14a6:	90 e0       	ldi	r25, 0x00	; 0
    14a8:	7d db       	rcall	.-2310   	; 0xba4 <enc28j60PacketSend>
    14aa:	0f 90       	pop	r0
    14ac:	0f 90       	pop	r0
    14ae:	0f 90       	pop	r0
    14b0:	df 91       	pop	r29
    14b2:	cf 91       	pop	r28
    14b4:	08 95       	ret

000014b6 <make_echo_reply_from_request>:
    14b6:	cf 93       	push	r28
    14b8:	df 93       	push	r29
    14ba:	00 d0       	rcall	.+0      	; 0x14bc <make_echo_reply_from_request+0x6>
    14bc:	00 d0       	rcall	.+0      	; 0x14be <make_echo_reply_from_request+0x8>
    14be:	cd b7       	in	r28, 0x3d	; 61
    14c0:	de b7       	in	r29, 0x3e	; 62
    14c2:	9a 83       	std	Y+2, r25	; 0x02
    14c4:	89 83       	std	Y+1, r24	; 0x01
    14c6:	7c 83       	std	Y+4, r23	; 0x04
    14c8:	6b 83       	std	Y+3, r22	; 0x03
    14ca:	89 81       	ldd	r24, Y+1	; 0x01
    14cc:	9a 81       	ldd	r25, Y+2	; 0x02
    14ce:	fc dd       	rcall	.-1032   	; 0x10c8 <make_eth>
    14d0:	89 81       	ldd	r24, Y+1	; 0x01
    14d2:	9a 81       	ldd	r25, Y+2	; 0x02
    14d4:	76 de       	rcall	.-788    	; 0x11c2 <make_ip>
    14d6:	89 81       	ldd	r24, Y+1	; 0x01
    14d8:	9a 81       	ldd	r25, Y+2	; 0x02
    14da:	82 96       	adiw	r24, 0x22	; 34
    14dc:	fc 01       	movw	r30, r24
    14de:	10 82       	st	Z, r1
    14e0:	89 81       	ldd	r24, Y+1	; 0x01
    14e2:	9a 81       	ldd	r25, Y+2	; 0x02
    14e4:	84 96       	adiw	r24, 0x24	; 36
    14e6:	fc 01       	movw	r30, r24
    14e8:	80 81       	ld	r24, Z
    14ea:	88 3f       	cpi	r24, 0xF8	; 248
    14ec:	40 f0       	brcs	.+16     	; 0x14fe <make_echo_reply_from_request+0x48>
    14ee:	89 81       	ldd	r24, Y+1	; 0x01
    14f0:	9a 81       	ldd	r25, Y+2	; 0x02
    14f2:	85 96       	adiw	r24, 0x25	; 37
    14f4:	fc 01       	movw	r30, r24
    14f6:	20 81       	ld	r18, Z
    14f8:	2f 5f       	subi	r18, 0xFF	; 255
    14fa:	fc 01       	movw	r30, r24
    14fc:	20 83       	st	Z, r18
    14fe:	89 81       	ldd	r24, Y+1	; 0x01
    1500:	9a 81       	ldd	r25, Y+2	; 0x02
    1502:	84 96       	adiw	r24, 0x24	; 36
    1504:	29 81       	ldd	r18, Y+1	; 0x01
    1506:	3a 81       	ldd	r19, Y+2	; 0x02
    1508:	2c 5d       	subi	r18, 0xDC	; 220
    150a:	3f 4f       	sbci	r19, 0xFF	; 255
    150c:	f9 01       	movw	r30, r18
    150e:	20 81       	ld	r18, Z
    1510:	28 5f       	subi	r18, 0xF8	; 248
    1512:	fc 01       	movw	r30, r24
    1514:	20 83       	st	Z, r18
    1516:	29 81       	ldd	r18, Y+1	; 0x01
    1518:	3a 81       	ldd	r19, Y+2	; 0x02
    151a:	8b 81       	ldd	r24, Y+3	; 0x03
    151c:	9c 81       	ldd	r25, Y+4	; 0x04
    151e:	b9 01       	movw	r22, r18
    1520:	41 db       	rcall	.-2430   	; 0xba4 <enc28j60PacketSend>
    1522:	0f 90       	pop	r0
    1524:	0f 90       	pop	r0
    1526:	0f 90       	pop	r0
    1528:	0f 90       	pop	r0
    152a:	df 91       	pop	r29
    152c:	cf 91       	pop	r28
    152e:	08 95       	ret

00001530 <get_tcp_data_len>:
    1530:	cf 93       	push	r28
    1532:	df 93       	push	r29
    1534:	00 d0       	rcall	.+0      	; 0x1536 <get_tcp_data_len+0x6>
    1536:	00 d0       	rcall	.+0      	; 0x1538 <get_tcp_data_len+0x8>
    1538:	cd b7       	in	r28, 0x3d	; 61
    153a:	de b7       	in	r29, 0x3e	; 62
    153c:	9c 83       	std	Y+4, r25	; 0x04
    153e:	8b 83       	std	Y+3, r24	; 0x03
    1540:	8b 81       	ldd	r24, Y+3	; 0x03
    1542:	9c 81       	ldd	r25, Y+4	; 0x04
    1544:	40 96       	adiw	r24, 0x10	; 16
    1546:	fc 01       	movw	r30, r24
    1548:	80 81       	ld	r24, Z
    154a:	88 2f       	mov	r24, r24
    154c:	90 e0       	ldi	r25, 0x00	; 0
    154e:	38 2f       	mov	r19, r24
    1550:	22 27       	eor	r18, r18
    1552:	8b 81       	ldd	r24, Y+3	; 0x03
    1554:	9c 81       	ldd	r25, Y+4	; 0x04
    1556:	41 96       	adiw	r24, 0x11	; 17
    1558:	fc 01       	movw	r30, r24
    155a:	80 81       	ld	r24, Z
    155c:	88 2f       	mov	r24, r24
    155e:	90 e0       	ldi	r25, 0x00	; 0
    1560:	99 27       	eor	r25, r25
    1562:	82 2b       	or	r24, r18
    1564:	93 2b       	or	r25, r19
    1566:	9a 83       	std	Y+2, r25	; 0x02
    1568:	89 83       	std	Y+1, r24	; 0x01
    156a:	89 81       	ldd	r24, Y+1	; 0x01
    156c:	9a 81       	ldd	r25, Y+2	; 0x02
    156e:	44 97       	sbiw	r24, 0x14	; 20
    1570:	9a 83       	std	Y+2, r25	; 0x02
    1572:	89 83       	std	Y+1, r24	; 0x01
    1574:	8b 81       	ldd	r24, Y+3	; 0x03
    1576:	9c 81       	ldd	r25, Y+4	; 0x04
    1578:	8e 96       	adiw	r24, 0x2e	; 46
    157a:	fc 01       	movw	r30, r24
    157c:	80 81       	ld	r24, Z
    157e:	82 95       	swap	r24
    1580:	8f 70       	andi	r24, 0x0F	; 15
    1582:	28 2f       	mov	r18, r24
    1584:	30 e0       	ldi	r19, 0x00	; 0
    1586:	80 e0       	ldi	r24, 0x00	; 0
    1588:	90 e0       	ldi	r25, 0x00	; 0
    158a:	82 1b       	sub	r24, r18
    158c:	93 0b       	sbc	r25, r19
    158e:	88 0f       	add	r24, r24
    1590:	99 1f       	adc	r25, r25
    1592:	88 0f       	add	r24, r24
    1594:	99 1f       	adc	r25, r25
    1596:	29 81       	ldd	r18, Y+1	; 0x01
    1598:	3a 81       	ldd	r19, Y+2	; 0x02
    159a:	82 0f       	add	r24, r18
    159c:	93 1f       	adc	r25, r19
    159e:	9a 83       	std	Y+2, r25	; 0x02
    15a0:	89 83       	std	Y+1, r24	; 0x01
    15a2:	89 81       	ldd	r24, Y+1	; 0x01
    15a4:	9a 81       	ldd	r25, Y+2	; 0x02
    15a6:	18 16       	cp	r1, r24
    15a8:	19 06       	cpc	r1, r25
    15aa:	14 f0       	brlt	.+4      	; 0x15b0 <get_tcp_data_len+0x80>
    15ac:	1a 82       	std	Y+2, r1	; 0x02
    15ae:	19 82       	std	Y+1, r1	; 0x01
    15b0:	89 81       	ldd	r24, Y+1	; 0x01
    15b2:	9a 81       	ldd	r25, Y+2	; 0x02
    15b4:	0f 90       	pop	r0
    15b6:	0f 90       	pop	r0
    15b8:	0f 90       	pop	r0
    15ba:	0f 90       	pop	r0
    15bc:	df 91       	pop	r29
    15be:	cf 91       	pop	r28
    15c0:	08 95       	ret

000015c2 <fill_tcp_data_p>:
    15c2:	1f 93       	push	r17
    15c4:	cf 93       	push	r28
    15c6:	df 93       	push	r29
    15c8:	cd b7       	in	r28, 0x3d	; 61
    15ca:	de b7       	in	r29, 0x3e	; 62
    15cc:	2a 97       	sbiw	r28, 0x0a	; 10
    15ce:	0f b6       	in	r0, 0x3f	; 63
    15d0:	f8 94       	cli
    15d2:	de bf       	out	0x3e, r29	; 62
    15d4:	0f be       	out	0x3f, r0	; 63
    15d6:	cd bf       	out	0x3d, r28	; 61
    15d8:	9e 83       	std	Y+6, r25	; 0x06
    15da:	8d 83       	std	Y+5, r24	; 0x05
    15dc:	78 87       	std	Y+8, r23	; 0x08
    15de:	6f 83       	std	Y+7, r22	; 0x07
    15e0:	5a 87       	std	Y+10, r21	; 0x0a
    15e2:	49 87       	std	Y+9, r20	; 0x09
    15e4:	0f c0       	rjmp	.+30     	; 0x1604 <fill_tcp_data_p+0x42>
    15e6:	8f 81       	ldd	r24, Y+7	; 0x07
    15e8:	98 85       	ldd	r25, Y+8	; 0x08
    15ea:	c6 96       	adiw	r24, 0x36	; 54
    15ec:	2d 81       	ldd	r18, Y+5	; 0x05
    15ee:	3e 81       	ldd	r19, Y+6	; 0x06
    15f0:	82 0f       	add	r24, r18
    15f2:	93 1f       	adc	r25, r19
    15f4:	2c 81       	ldd	r18, Y+4	; 0x04
    15f6:	fc 01       	movw	r30, r24
    15f8:	20 83       	st	Z, r18
    15fa:	8f 81       	ldd	r24, Y+7	; 0x07
    15fc:	98 85       	ldd	r25, Y+8	; 0x08
    15fe:	01 96       	adiw	r24, 0x01	; 1
    1600:	98 87       	std	Y+8, r25	; 0x08
    1602:	8f 83       	std	Y+7, r24	; 0x07
    1604:	89 85       	ldd	r24, Y+9	; 0x09
    1606:	9a 85       	ldd	r25, Y+10	; 0x0a
    1608:	9a 83       	std	Y+2, r25	; 0x02
    160a:	89 83       	std	Y+1, r24	; 0x01
    160c:	89 85       	ldd	r24, Y+9	; 0x09
    160e:	9a 85       	ldd	r25, Y+10	; 0x0a
    1610:	01 96       	adiw	r24, 0x01	; 1
    1612:	9a 87       	std	Y+10, r25	; 0x0a
    1614:	89 87       	std	Y+9, r24	; 0x09
    1616:	89 81       	ldd	r24, Y+1	; 0x01
    1618:	9a 81       	ldd	r25, Y+2	; 0x02
    161a:	fc 01       	movw	r30, r24
    161c:	14 91       	lpm	r17, Z
    161e:	1b 83       	std	Y+3, r17	; 0x03
    1620:	8b 81       	ldd	r24, Y+3	; 0x03
    1622:	8c 83       	std	Y+4, r24	; 0x04
    1624:	8c 81       	ldd	r24, Y+4	; 0x04
    1626:	88 23       	and	r24, r24
    1628:	f1 f6       	brne	.-68     	; 0x15e6 <fill_tcp_data_p+0x24>
    162a:	8f 81       	ldd	r24, Y+7	; 0x07
    162c:	98 85       	ldd	r25, Y+8	; 0x08
    162e:	2a 96       	adiw	r28, 0x0a	; 10
    1630:	0f b6       	in	r0, 0x3f	; 63
    1632:	f8 94       	cli
    1634:	de bf       	out	0x3e, r29	; 62
    1636:	0f be       	out	0x3f, r0	; 63
    1638:	cd bf       	out	0x3d, r28	; 61
    163a:	df 91       	pop	r29
    163c:	cf 91       	pop	r28
    163e:	1f 91       	pop	r17
    1640:	08 95       	ret

00001642 <fill_tcp_data_len>:
    1642:	cf 93       	push	r28
    1644:	df 93       	push	r29
    1646:	cd b7       	in	r28, 0x3d	; 61
    1648:	de b7       	in	r29, 0x3e	; 62
    164a:	27 97       	sbiw	r28, 0x07	; 7
    164c:	0f b6       	in	r0, 0x3f	; 63
    164e:	f8 94       	cli
    1650:	de bf       	out	0x3e, r29	; 62
    1652:	0f be       	out	0x3f, r0	; 63
    1654:	cd bf       	out	0x3d, r28	; 61
    1656:	9a 83       	std	Y+2, r25	; 0x02
    1658:	89 83       	std	Y+1, r24	; 0x01
    165a:	7c 83       	std	Y+4, r23	; 0x04
    165c:	6b 83       	std	Y+3, r22	; 0x03
    165e:	5e 83       	std	Y+6, r21	; 0x06
    1660:	4d 83       	std	Y+5, r20	; 0x05
    1662:	2f 83       	std	Y+7, r18	; 0x07
    1664:	1a c0       	rjmp	.+52     	; 0x169a <fill_tcp_data_len+0x58>
    1666:	8b 81       	ldd	r24, Y+3	; 0x03
    1668:	9c 81       	ldd	r25, Y+4	; 0x04
    166a:	c6 96       	adiw	r24, 0x36	; 54
    166c:	29 81       	ldd	r18, Y+1	; 0x01
    166e:	3a 81       	ldd	r19, Y+2	; 0x02
    1670:	82 0f       	add	r24, r18
    1672:	93 1f       	adc	r25, r19
    1674:	2d 81       	ldd	r18, Y+5	; 0x05
    1676:	3e 81       	ldd	r19, Y+6	; 0x06
    1678:	f9 01       	movw	r30, r18
    167a:	20 81       	ld	r18, Z
    167c:	fc 01       	movw	r30, r24
    167e:	20 83       	st	Z, r18
    1680:	8b 81       	ldd	r24, Y+3	; 0x03
    1682:	9c 81       	ldd	r25, Y+4	; 0x04
    1684:	01 96       	adiw	r24, 0x01	; 1
    1686:	9c 83       	std	Y+4, r25	; 0x04
    1688:	8b 83       	std	Y+3, r24	; 0x03
    168a:	8d 81       	ldd	r24, Y+5	; 0x05
    168c:	9e 81       	ldd	r25, Y+6	; 0x06
    168e:	01 96       	adiw	r24, 0x01	; 1
    1690:	9e 83       	std	Y+6, r25	; 0x06
    1692:	8d 83       	std	Y+5, r24	; 0x05
    1694:	8f 81       	ldd	r24, Y+7	; 0x07
    1696:	81 50       	subi	r24, 0x01	; 1
    1698:	8f 83       	std	Y+7, r24	; 0x07
    169a:	8f 81       	ldd	r24, Y+7	; 0x07
    169c:	88 23       	and	r24, r24
    169e:	19 f7       	brne	.-58     	; 0x1666 <fill_tcp_data_len+0x24>
    16a0:	8b 81       	ldd	r24, Y+3	; 0x03
    16a2:	9c 81       	ldd	r25, Y+4	; 0x04
    16a4:	27 96       	adiw	r28, 0x07	; 7
    16a6:	0f b6       	in	r0, 0x3f	; 63
    16a8:	f8 94       	cli
    16aa:	de bf       	out	0x3e, r29	; 62
    16ac:	0f be       	out	0x3f, r0	; 63
    16ae:	cd bf       	out	0x3d, r28	; 61
    16b0:	df 91       	pop	r29
    16b2:	cf 91       	pop	r28
    16b4:	08 95       	ret

000016b6 <fill_tcp_data>:
    16b6:	cf 93       	push	r28
    16b8:	df 93       	push	r29
    16ba:	00 d0       	rcall	.+0      	; 0x16bc <fill_tcp_data+0x6>
    16bc:	00 d0       	rcall	.+0      	; 0x16be <fill_tcp_data+0x8>
    16be:	00 d0       	rcall	.+0      	; 0x16c0 <fill_tcp_data+0xa>
    16c0:	cd b7       	in	r28, 0x3d	; 61
    16c2:	de b7       	in	r29, 0x3e	; 62
    16c4:	9a 83       	std	Y+2, r25	; 0x02
    16c6:	89 83       	std	Y+1, r24	; 0x01
    16c8:	7c 83       	std	Y+4, r23	; 0x04
    16ca:	6b 83       	std	Y+3, r22	; 0x03
    16cc:	5e 83       	std	Y+6, r21	; 0x06
    16ce:	4d 83       	std	Y+5, r20	; 0x05
    16d0:	8d 81       	ldd	r24, Y+5	; 0x05
    16d2:	9e 81       	ldd	r25, Y+6	; 0x06
    16d4:	0e 94 c3 13 	call	0x2786	; 0x2786 <strlen>
    16d8:	28 2f       	mov	r18, r24
    16da:	4d 81       	ldd	r20, Y+5	; 0x05
    16dc:	5e 81       	ldd	r21, Y+6	; 0x06
    16de:	6b 81       	ldd	r22, Y+3	; 0x03
    16e0:	7c 81       	ldd	r23, Y+4	; 0x04
    16e2:	89 81       	ldd	r24, Y+1	; 0x01
    16e4:	9a 81       	ldd	r25, Y+2	; 0x02
    16e6:	ad df       	rcall	.-166    	; 0x1642 <fill_tcp_data_len>
    16e8:	26 96       	adiw	r28, 0x06	; 6
    16ea:	0f b6       	in	r0, 0x3f	; 63
    16ec:	f8 94       	cli
    16ee:	de bf       	out	0x3e, r29	; 62
    16f0:	0f be       	out	0x3f, r0	; 63
    16f2:	cd bf       	out	0x3d, r28	; 61
    16f4:	df 91       	pop	r29
    16f6:	cf 91       	pop	r28
    16f8:	08 95       	ret

000016fa <make_tcp_ack_from_any>:
    16fa:	cf 93       	push	r28
    16fc:	df 93       	push	r29
    16fe:	cd b7       	in	r28, 0x3d	; 61
    1700:	de b7       	in	r29, 0x3e	; 62
    1702:	27 97       	sbiw	r28, 0x07	; 7
    1704:	0f b6       	in	r0, 0x3f	; 63
    1706:	f8 94       	cli
    1708:	de bf       	out	0x3e, r29	; 62
    170a:	0f be       	out	0x3f, r0	; 63
    170c:	cd bf       	out	0x3d, r28	; 61
    170e:	9c 83       	std	Y+4, r25	; 0x04
    1710:	8b 83       	std	Y+3, r24	; 0x03
    1712:	7e 83       	std	Y+6, r23	; 0x06
    1714:	6d 83       	std	Y+5, r22	; 0x05
    1716:	4f 83       	std	Y+7, r20	; 0x07
    1718:	8b 81       	ldd	r24, Y+3	; 0x03
    171a:	9c 81       	ldd	r25, Y+4	; 0x04
    171c:	d5 dc       	rcall	.-1622   	; 0x10c8 <make_eth>
    171e:	8b 81       	ldd	r24, Y+3	; 0x03
    1720:	9c 81       	ldd	r25, Y+4	; 0x04
    1722:	8f 96       	adiw	r24, 0x2f	; 47
    1724:	2f 81       	ldd	r18, Y+7	; 0x07
    1726:	20 61       	ori	r18, 0x10	; 16
    1728:	fc 01       	movw	r30, r24
    172a:	20 83       	st	Z, r18
    172c:	8f 81       	ldd	r24, Y+7	; 0x07
    172e:	84 30       	cpi	r24, 0x04	; 4
    1730:	41 f4       	brne	.+16     	; 0x1742 <make_tcp_ack_from_any+0x48>
    1732:	2d 81       	ldd	r18, Y+5	; 0x05
    1734:	3e 81       	ldd	r19, Y+6	; 0x06
    1736:	8b 81       	ldd	r24, Y+3	; 0x03
    1738:	9c 81       	ldd	r25, Y+4	; 0x04
    173a:	41 e0       	ldi	r20, 0x01	; 1
    173c:	b9 01       	movw	r22, r18
    173e:	e9 dd       	rcall	.-1070   	; 0x1312 <make_tcphead>
    1740:	0f c0       	rjmp	.+30     	; 0x1760 <make_tcp_ack_from_any+0x66>
    1742:	8d 81       	ldd	r24, Y+5	; 0x05
    1744:	9e 81       	ldd	r25, Y+6	; 0x06
    1746:	00 97       	sbiw	r24, 0x00	; 0
    1748:	21 f4       	brne	.+8      	; 0x1752 <make_tcp_ack_from_any+0x58>
    174a:	81 e0       	ldi	r24, 0x01	; 1
    174c:	90 e0       	ldi	r25, 0x00	; 0
    174e:	9e 83       	std	Y+6, r25	; 0x06
    1750:	8d 83       	std	Y+5, r24	; 0x05
    1752:	2d 81       	ldd	r18, Y+5	; 0x05
    1754:	3e 81       	ldd	r19, Y+6	; 0x06
    1756:	8b 81       	ldd	r24, Y+3	; 0x03
    1758:	9c 81       	ldd	r25, Y+4	; 0x04
    175a:	41 e0       	ldi	r20, 0x01	; 1
    175c:	b9 01       	movw	r22, r18
    175e:	d9 dd       	rcall	.-1102   	; 0x1312 <make_tcphead>
    1760:	88 e2       	ldi	r24, 0x28	; 40
    1762:	90 e0       	ldi	r25, 0x00	; 0
    1764:	9a 83       	std	Y+2, r25	; 0x02
    1766:	89 83       	std	Y+1, r24	; 0x01
    1768:	8b 81       	ldd	r24, Y+3	; 0x03
    176a:	9c 81       	ldd	r25, Y+4	; 0x04
    176c:	40 96       	adiw	r24, 0x10	; 16
    176e:	29 81       	ldd	r18, Y+1	; 0x01
    1770:	3a 81       	ldd	r19, Y+2	; 0x02
    1772:	23 2f       	mov	r18, r19
    1774:	33 27       	eor	r19, r19
    1776:	fc 01       	movw	r30, r24
    1778:	20 83       	st	Z, r18
    177a:	8b 81       	ldd	r24, Y+3	; 0x03
    177c:	9c 81       	ldd	r25, Y+4	; 0x04
    177e:	41 96       	adiw	r24, 0x11	; 17
    1780:	29 81       	ldd	r18, Y+1	; 0x01
    1782:	fc 01       	movw	r30, r24
    1784:	20 83       	st	Z, r18
    1786:	8b 81       	ldd	r24, Y+3	; 0x03
    1788:	9c 81       	ldd	r25, Y+4	; 0x04
    178a:	1b dd       	rcall	.-1482   	; 0x11c2 <make_ip>
    178c:	8b 81       	ldd	r24, Y+3	; 0x03
    178e:	9c 81       	ldd	r25, Y+4	; 0x04
    1790:	c0 96       	adiw	r24, 0x30	; 48
    1792:	24 e0       	ldi	r18, 0x04	; 4
    1794:	fc 01       	movw	r30, r24
    1796:	20 83       	st	Z, r18
    1798:	8b 81       	ldd	r24, Y+3	; 0x03
    179a:	9c 81       	ldd	r25, Y+4	; 0x04
    179c:	c1 96       	adiw	r24, 0x31	; 49
    179e:	fc 01       	movw	r30, r24
    17a0:	10 82       	st	Z, r1
    17a2:	8b 81       	ldd	r24, Y+3	; 0x03
    17a4:	9c 81       	ldd	r25, Y+4	; 0x04
    17a6:	4a 96       	adiw	r24, 0x1a	; 26
    17a8:	42 e0       	ldi	r20, 0x02	; 2
    17aa:	6c e1       	ldi	r22, 0x1C	; 28
    17ac:	70 e0       	ldi	r23, 0x00	; 0
    17ae:	02 db       	rcall	.-2556   	; 0xdb4 <checksum>
    17b0:	9a 83       	std	Y+2, r25	; 0x02
    17b2:	89 83       	std	Y+1, r24	; 0x01
    17b4:	8b 81       	ldd	r24, Y+3	; 0x03
    17b6:	9c 81       	ldd	r25, Y+4	; 0x04
    17b8:	c2 96       	adiw	r24, 0x32	; 50
    17ba:	29 81       	ldd	r18, Y+1	; 0x01
    17bc:	3a 81       	ldd	r19, Y+2	; 0x02
    17be:	23 2f       	mov	r18, r19
    17c0:	33 27       	eor	r19, r19
    17c2:	fc 01       	movw	r30, r24
    17c4:	20 83       	st	Z, r18
    17c6:	8b 81       	ldd	r24, Y+3	; 0x03
    17c8:	9c 81       	ldd	r25, Y+4	; 0x04
    17ca:	c3 96       	adiw	r24, 0x33	; 51
    17cc:	29 81       	ldd	r18, Y+1	; 0x01
    17ce:	fc 01       	movw	r30, r24
    17d0:	20 83       	st	Z, r18
    17d2:	8b 81       	ldd	r24, Y+3	; 0x03
    17d4:	9c 81       	ldd	r25, Y+4	; 0x04
    17d6:	bc 01       	movw	r22, r24
    17d8:	86 e3       	ldi	r24, 0x36	; 54
    17da:	90 e0       	ldi	r25, 0x00	; 0
    17dc:	e3 d9       	rcall	.-3130   	; 0xba4 <enc28j60PacketSend>
    17de:	27 96       	adiw	r28, 0x07	; 7
    17e0:	0f b6       	in	r0, 0x3f	; 63
    17e2:	f8 94       	cli
    17e4:	de bf       	out	0x3e, r29	; 62
    17e6:	0f be       	out	0x3f, r0	; 63
    17e8:	cd bf       	out	0x3d, r28	; 61
    17ea:	df 91       	pop	r29
    17ec:	cf 91       	pop	r28
    17ee:	08 95       	ret

000017f0 <make_tcp_ack_with_data_noflags>:
    17f0:	cf 93       	push	r28
    17f2:	df 93       	push	r29
    17f4:	00 d0       	rcall	.+0      	; 0x17f6 <make_tcp_ack_with_data_noflags+0x6>
    17f6:	00 d0       	rcall	.+0      	; 0x17f8 <make_tcp_ack_with_data_noflags+0x8>
    17f8:	00 d0       	rcall	.+0      	; 0x17fa <make_tcp_ack_with_data_noflags+0xa>
    17fa:	cd b7       	in	r28, 0x3d	; 61
    17fc:	de b7       	in	r29, 0x3e	; 62
    17fe:	9c 83       	std	Y+4, r25	; 0x04
    1800:	8b 83       	std	Y+3, r24	; 0x03
    1802:	7e 83       	std	Y+6, r23	; 0x06
    1804:	6d 83       	std	Y+5, r22	; 0x05
    1806:	8d 81       	ldd	r24, Y+5	; 0x05
    1808:	9e 81       	ldd	r25, Y+6	; 0x06
    180a:	88 96       	adiw	r24, 0x28	; 40
    180c:	9a 83       	std	Y+2, r25	; 0x02
    180e:	89 83       	std	Y+1, r24	; 0x01
    1810:	8b 81       	ldd	r24, Y+3	; 0x03
    1812:	9c 81       	ldd	r25, Y+4	; 0x04
    1814:	40 96       	adiw	r24, 0x10	; 16
    1816:	29 81       	ldd	r18, Y+1	; 0x01
    1818:	3a 81       	ldd	r19, Y+2	; 0x02
    181a:	23 2f       	mov	r18, r19
    181c:	33 27       	eor	r19, r19
    181e:	fc 01       	movw	r30, r24
    1820:	20 83       	st	Z, r18
    1822:	8b 81       	ldd	r24, Y+3	; 0x03
    1824:	9c 81       	ldd	r25, Y+4	; 0x04
    1826:	41 96       	adiw	r24, 0x11	; 17
    1828:	29 81       	ldd	r18, Y+1	; 0x01
    182a:	fc 01       	movw	r30, r24
    182c:	20 83       	st	Z, r18
    182e:	8b 81       	ldd	r24, Y+3	; 0x03
    1830:	9c 81       	ldd	r25, Y+4	; 0x04
    1832:	85 dc       	rcall	.-1782   	; 0x113e <fill_ip_hdr_checksum>
    1834:	8b 81       	ldd	r24, Y+3	; 0x03
    1836:	9c 81       	ldd	r25, Y+4	; 0x04
    1838:	c2 96       	adiw	r24, 0x32	; 50
    183a:	fc 01       	movw	r30, r24
    183c:	10 82       	st	Z, r1
    183e:	8b 81       	ldd	r24, Y+3	; 0x03
    1840:	9c 81       	ldd	r25, Y+4	; 0x04
    1842:	c3 96       	adiw	r24, 0x33	; 51
    1844:	fc 01       	movw	r30, r24
    1846:	10 82       	st	Z, r1
    1848:	8d 81       	ldd	r24, Y+5	; 0x05
    184a:	9e 81       	ldd	r25, Y+6	; 0x06
    184c:	9c 01       	movw	r18, r24
    184e:	24 5e       	subi	r18, 0xE4	; 228
    1850:	3f 4f       	sbci	r19, 0xFF	; 255
    1852:	8b 81       	ldd	r24, Y+3	; 0x03
    1854:	9c 81       	ldd	r25, Y+4	; 0x04
    1856:	4a 96       	adiw	r24, 0x1a	; 26
    1858:	42 e0       	ldi	r20, 0x02	; 2
    185a:	b9 01       	movw	r22, r18
    185c:	ab da       	rcall	.-2730   	; 0xdb4 <checksum>
    185e:	9a 83       	std	Y+2, r25	; 0x02
    1860:	89 83       	std	Y+1, r24	; 0x01
    1862:	8b 81       	ldd	r24, Y+3	; 0x03
    1864:	9c 81       	ldd	r25, Y+4	; 0x04
    1866:	c2 96       	adiw	r24, 0x32	; 50
    1868:	29 81       	ldd	r18, Y+1	; 0x01
    186a:	3a 81       	ldd	r19, Y+2	; 0x02
    186c:	23 2f       	mov	r18, r19
    186e:	33 27       	eor	r19, r19
    1870:	fc 01       	movw	r30, r24
    1872:	20 83       	st	Z, r18
    1874:	8b 81       	ldd	r24, Y+3	; 0x03
    1876:	9c 81       	ldd	r25, Y+4	; 0x04
    1878:	c3 96       	adiw	r24, 0x33	; 51
    187a:	29 81       	ldd	r18, Y+1	; 0x01
    187c:	fc 01       	movw	r30, r24
    187e:	20 83       	st	Z, r18
    1880:	8d 81       	ldd	r24, Y+5	; 0x05
    1882:	9e 81       	ldd	r25, Y+6	; 0x06
    1884:	c6 96       	adiw	r24, 0x36	; 54
    1886:	2b 81       	ldd	r18, Y+3	; 0x03
    1888:	3c 81       	ldd	r19, Y+4	; 0x04
    188a:	b9 01       	movw	r22, r18
    188c:	8b d9       	rcall	.-3306   	; 0xba4 <enc28j60PacketSend>
    188e:	26 96       	adiw	r28, 0x06	; 6
    1890:	0f b6       	in	r0, 0x3f	; 63
    1892:	f8 94       	cli
    1894:	de bf       	out	0x3e, r29	; 62
    1896:	0f be       	out	0x3f, r0	; 63
    1898:	cd bf       	out	0x3d, r28	; 61
    189a:	df 91       	pop	r29
    189c:	cf 91       	pop	r28
    189e:	08 95       	ret

000018a0 <init_udp_or_www_server>:
    18a0:	cf 93       	push	r28
    18a2:	df 93       	push	r29
    18a4:	00 d0       	rcall	.+0      	; 0x18a6 <init_udp_or_www_server+0x6>
    18a6:	00 d0       	rcall	.+0      	; 0x18a8 <init_udp_or_www_server+0x8>
    18a8:	1f 92       	push	r1
    18aa:	cd b7       	in	r28, 0x3d	; 61
    18ac:	de b7       	in	r29, 0x3e	; 62
    18ae:	9b 83       	std	Y+3, r25	; 0x03
    18b0:	8a 83       	std	Y+2, r24	; 0x02
    18b2:	7d 83       	std	Y+5, r23	; 0x05
    18b4:	6c 83       	std	Y+4, r22	; 0x04
    18b6:	19 82       	std	Y+1, r1	; 0x01
    18b8:	8c 81       	ldd	r24, Y+4	; 0x04
    18ba:	9d 81       	ldd	r25, Y+5	; 0x05
    18bc:	00 97       	sbiw	r24, 0x00	; 0
    18be:	b9 f0       	breq	.+46     	; 0x18ee <init_udp_or_www_server+0x4e>
    18c0:	13 c0       	rjmp	.+38     	; 0x18e8 <init_udp_or_www_server+0x48>
    18c2:	89 81       	ldd	r24, Y+1	; 0x01
    18c4:	88 2f       	mov	r24, r24
    18c6:	90 e0       	ldi	r25, 0x00	; 0
    18c8:	29 81       	ldd	r18, Y+1	; 0x01
    18ca:	22 2f       	mov	r18, r18
    18cc:	30 e0       	ldi	r19, 0x00	; 0
    18ce:	4c 81       	ldd	r20, Y+4	; 0x04
    18d0:	5d 81       	ldd	r21, Y+5	; 0x05
    18d2:	24 0f       	add	r18, r20
    18d4:	35 1f       	adc	r19, r21
    18d6:	f9 01       	movw	r30, r18
    18d8:	20 81       	ld	r18, Z
    18da:	8a 5e       	subi	r24, 0xEA	; 234
    18dc:	9c 4f       	sbci	r25, 0xFC	; 252
    18de:	fc 01       	movw	r30, r24
    18e0:	20 83       	st	Z, r18
    18e2:	89 81       	ldd	r24, Y+1	; 0x01
    18e4:	8f 5f       	subi	r24, 0xFF	; 255
    18e6:	89 83       	std	Y+1, r24	; 0x01
    18e8:	89 81       	ldd	r24, Y+1	; 0x01
    18ea:	84 30       	cpi	r24, 0x04	; 4
    18ec:	50 f3       	brcs	.-44     	; 0x18c2 <init_udp_or_www_server+0x22>
    18ee:	8a 81       	ldd	r24, Y+2	; 0x02
    18f0:	9b 81       	ldd	r25, Y+3	; 0x03
    18f2:	00 97       	sbiw	r24, 0x00	; 0
    18f4:	19 f0       	breq	.+6      	; 0x18fc <init_udp_or_www_server+0x5c>
    18f6:	8a 81       	ldd	r24, Y+2	; 0x02
    18f8:	9b 81       	ldd	r25, Y+3	; 0x03
    18fa:	35 db       	rcall	.-2454   	; 0xf66 <init_mac>
    18fc:	0f 90       	pop	r0
    18fe:	0f 90       	pop	r0
    1900:	0f 90       	pop	r0
    1902:	0f 90       	pop	r0
    1904:	0f 90       	pop	r0
    1906:	df 91       	pop	r29
    1908:	cf 91       	pop	r28
    190a:	08 95       	ret

0000190c <www_server_port>:
    190c:	cf 93       	push	r28
    190e:	df 93       	push	r29
    1910:	00 d0       	rcall	.+0      	; 0x1912 <www_server_port+0x6>
    1912:	cd b7       	in	r28, 0x3d	; 61
    1914:	de b7       	in	r29, 0x3e	; 62
    1916:	9a 83       	std	Y+2, r25	; 0x02
    1918:	89 83       	std	Y+1, r24	; 0x01
    191a:	89 81       	ldd	r24, Y+1	; 0x01
    191c:	9a 81       	ldd	r25, Y+2	; 0x02
    191e:	89 2f       	mov	r24, r25
    1920:	99 27       	eor	r25, r25
    1922:	80 93 1c 03 	sts	0x031C, r24
    1926:	89 81       	ldd	r24, Y+1	; 0x01
    1928:	80 93 0b 01 	sts	0x010B, r24
    192c:	0f 90       	pop	r0
    192e:	0f 90       	pop	r0
    1930:	df 91       	pop	r29
    1932:	cf 91       	pop	r28
    1934:	08 95       	ret

00001936 <make_tcp_synack_from_syn>:
    1936:	cf 93       	push	r28
    1938:	df 93       	push	r29
    193a:	00 d0       	rcall	.+0      	; 0x193c <make_tcp_synack_from_syn+0x6>
    193c:	00 d0       	rcall	.+0      	; 0x193e <make_tcp_synack_from_syn+0x8>
    193e:	cd b7       	in	r28, 0x3d	; 61
    1940:	de b7       	in	r29, 0x3e	; 62
    1942:	9c 83       	std	Y+4, r25	; 0x04
    1944:	8b 83       	std	Y+3, r24	; 0x03
    1946:	8b 81       	ldd	r24, Y+3	; 0x03
    1948:	9c 81       	ldd	r25, Y+4	; 0x04
    194a:	be db       	rcall	.-2180   	; 0x10c8 <make_eth>
    194c:	8b 81       	ldd	r24, Y+3	; 0x03
    194e:	9c 81       	ldd	r25, Y+4	; 0x04
    1950:	40 96       	adiw	r24, 0x10	; 16
    1952:	fc 01       	movw	r30, r24
    1954:	10 82       	st	Z, r1
    1956:	8b 81       	ldd	r24, Y+3	; 0x03
    1958:	9c 81       	ldd	r25, Y+4	; 0x04
    195a:	41 96       	adiw	r24, 0x11	; 17
    195c:	2c e2       	ldi	r18, 0x2C	; 44
    195e:	fc 01       	movw	r30, r24
    1960:	20 83       	st	Z, r18
    1962:	8b 81       	ldd	r24, Y+3	; 0x03
    1964:	9c 81       	ldd	r25, Y+4	; 0x04
    1966:	2d dc       	rcall	.-1958   	; 0x11c2 <make_ip>
    1968:	8b 81       	ldd	r24, Y+3	; 0x03
    196a:	9c 81       	ldd	r25, Y+4	; 0x04
    196c:	8f 96       	adiw	r24, 0x2f	; 47
    196e:	22 e1       	ldi	r18, 0x12	; 18
    1970:	fc 01       	movw	r30, r24
    1972:	20 83       	st	Z, r18
    1974:	8b 81       	ldd	r24, Y+3	; 0x03
    1976:	9c 81       	ldd	r25, Y+4	; 0x04
    1978:	40 e0       	ldi	r20, 0x00	; 0
    197a:	61 e0       	ldi	r22, 0x01	; 1
    197c:	70 e0       	ldi	r23, 0x00	; 0
    197e:	c9 dc       	rcall	.-1646   	; 0x1312 <make_tcphead>
    1980:	8b 81       	ldd	r24, Y+3	; 0x03
    1982:	9c 81       	ldd	r25, Y+4	; 0x04
    1984:	86 96       	adiw	r24, 0x26	; 38
    1986:	fc 01       	movw	r30, r24
    1988:	10 82       	st	Z, r1
    198a:	8b 81       	ldd	r24, Y+3	; 0x03
    198c:	9c 81       	ldd	r25, Y+4	; 0x04
    198e:	87 96       	adiw	r24, 0x27	; 39
    1990:	fc 01       	movw	r30, r24
    1992:	10 82       	st	Z, r1
    1994:	8b 81       	ldd	r24, Y+3	; 0x03
    1996:	9c 81       	ldd	r25, Y+4	; 0x04
    1998:	88 96       	adiw	r24, 0x28	; 40
    199a:	20 91 0a 01 	lds	r18, 0x010A
    199e:	fc 01       	movw	r30, r24
    19a0:	20 83       	st	Z, r18
    19a2:	8b 81       	ldd	r24, Y+3	; 0x03
    19a4:	9c 81       	ldd	r25, Y+4	; 0x04
    19a6:	89 96       	adiw	r24, 0x29	; 41
    19a8:	fc 01       	movw	r30, r24
    19aa:	10 82       	st	Z, r1
    19ac:	80 91 0a 01 	lds	r24, 0x010A
    19b0:	8d 5f       	subi	r24, 0xFD	; 253
    19b2:	80 93 0a 01 	sts	0x010A, r24
    19b6:	8b 81       	ldd	r24, Y+3	; 0x03
    19b8:	9c 81       	ldd	r25, Y+4	; 0x04
    19ba:	c6 96       	adiw	r24, 0x36	; 54
    19bc:	22 e0       	ldi	r18, 0x02	; 2
    19be:	fc 01       	movw	r30, r24
    19c0:	20 83       	st	Z, r18
    19c2:	8b 81       	ldd	r24, Y+3	; 0x03
    19c4:	9c 81       	ldd	r25, Y+4	; 0x04
    19c6:	c7 96       	adiw	r24, 0x37	; 55
    19c8:	24 e0       	ldi	r18, 0x04	; 4
    19ca:	fc 01       	movw	r30, r24
    19cc:	20 83       	st	Z, r18
    19ce:	8b 81       	ldd	r24, Y+3	; 0x03
    19d0:	9c 81       	ldd	r25, Y+4	; 0x04
    19d2:	c8 96       	adiw	r24, 0x38	; 56
    19d4:	25 e0       	ldi	r18, 0x05	; 5
    19d6:	fc 01       	movw	r30, r24
    19d8:	20 83       	st	Z, r18
    19da:	8b 81       	ldd	r24, Y+3	; 0x03
    19dc:	9c 81       	ldd	r25, Y+4	; 0x04
    19de:	c9 96       	adiw	r24, 0x39	; 57
    19e0:	fc 01       	movw	r30, r24
    19e2:	10 82       	st	Z, r1
    19e4:	8b 81       	ldd	r24, Y+3	; 0x03
    19e6:	9c 81       	ldd	r25, Y+4	; 0x04
    19e8:	8e 96       	adiw	r24, 0x2e	; 46
    19ea:	20 e6       	ldi	r18, 0x60	; 96
    19ec:	fc 01       	movw	r30, r24
    19ee:	20 83       	st	Z, r18
    19f0:	8b 81       	ldd	r24, Y+3	; 0x03
    19f2:	9c 81       	ldd	r25, Y+4	; 0x04
    19f4:	c0 96       	adiw	r24, 0x30	; 48
    19f6:	2a e0       	ldi	r18, 0x0A	; 10
    19f8:	fc 01       	movw	r30, r24
    19fa:	20 83       	st	Z, r18
    19fc:	8b 81       	ldd	r24, Y+3	; 0x03
    19fe:	9c 81       	ldd	r25, Y+4	; 0x04
    1a00:	c1 96       	adiw	r24, 0x31	; 49
    1a02:	fc 01       	movw	r30, r24
    1a04:	10 82       	st	Z, r1
    1a06:	8b 81       	ldd	r24, Y+3	; 0x03
    1a08:	9c 81       	ldd	r25, Y+4	; 0x04
    1a0a:	4a 96       	adiw	r24, 0x1a	; 26
    1a0c:	42 e0       	ldi	r20, 0x02	; 2
    1a0e:	60 e2       	ldi	r22, 0x20	; 32
    1a10:	70 e0       	ldi	r23, 0x00	; 0
    1a12:	d0 d9       	rcall	.-3168   	; 0xdb4 <checksum>
    1a14:	9a 83       	std	Y+2, r25	; 0x02
    1a16:	89 83       	std	Y+1, r24	; 0x01
    1a18:	8b 81       	ldd	r24, Y+3	; 0x03
    1a1a:	9c 81       	ldd	r25, Y+4	; 0x04
    1a1c:	c2 96       	adiw	r24, 0x32	; 50
    1a1e:	29 81       	ldd	r18, Y+1	; 0x01
    1a20:	3a 81       	ldd	r19, Y+2	; 0x02
    1a22:	23 2f       	mov	r18, r19
    1a24:	33 27       	eor	r19, r19
    1a26:	fc 01       	movw	r30, r24
    1a28:	20 83       	st	Z, r18
    1a2a:	8b 81       	ldd	r24, Y+3	; 0x03
    1a2c:	9c 81       	ldd	r25, Y+4	; 0x04
    1a2e:	c3 96       	adiw	r24, 0x33	; 51
    1a30:	29 81       	ldd	r18, Y+1	; 0x01
    1a32:	fc 01       	movw	r30, r24
    1a34:	20 83       	st	Z, r18
    1a36:	8b 81       	ldd	r24, Y+3	; 0x03
    1a38:	9c 81       	ldd	r25, Y+4	; 0x04
    1a3a:	bc 01       	movw	r22, r24
    1a3c:	8a e3       	ldi	r24, 0x3A	; 58
    1a3e:	90 e0       	ldi	r25, 0x00	; 0
    1a40:	b1 d8       	rcall	.-3742   	; 0xba4 <enc28j60PacketSend>
    1a42:	0f 90       	pop	r0
    1a44:	0f 90       	pop	r0
    1a46:	0f 90       	pop	r0
    1a48:	0f 90       	pop	r0
    1a4a:	df 91       	pop	r29
    1a4c:	cf 91       	pop	r28
    1a4e:	08 95       	ret

00001a50 <www_server_reply>:
    1a50:	cf 93       	push	r28
    1a52:	df 93       	push	r29
    1a54:	00 d0       	rcall	.+0      	; 0x1a56 <www_server_reply+0x6>
    1a56:	00 d0       	rcall	.+0      	; 0x1a58 <www_server_reply+0x8>
    1a58:	cd b7       	in	r28, 0x3d	; 61
    1a5a:	de b7       	in	r29, 0x3e	; 62
    1a5c:	9a 83       	std	Y+2, r25	; 0x02
    1a5e:	89 83       	std	Y+1, r24	; 0x01
    1a60:	7c 83       	std	Y+4, r23	; 0x04
    1a62:	6b 83       	std	Y+3, r22	; 0x03
    1a64:	80 91 1d 03 	lds	r24, 0x031D
    1a68:	90 91 1e 03 	lds	r25, 0x031E
    1a6c:	9c 01       	movw	r18, r24
    1a6e:	89 81       	ldd	r24, Y+1	; 0x01
    1a70:	9a 81       	ldd	r25, Y+2	; 0x02
    1a72:	40 e0       	ldi	r20, 0x00	; 0
    1a74:	b9 01       	movw	r22, r18
    1a76:	41 de       	rcall	.-894    	; 0x16fa <make_tcp_ack_from_any>
    1a78:	89 81       	ldd	r24, Y+1	; 0x01
    1a7a:	9a 81       	ldd	r25, Y+2	; 0x02
    1a7c:	8f 96       	adiw	r24, 0x2f	; 47
    1a7e:	29 e1       	ldi	r18, 0x19	; 25
    1a80:	fc 01       	movw	r30, r24
    1a82:	20 83       	st	Z, r18
    1a84:	2b 81       	ldd	r18, Y+3	; 0x03
    1a86:	3c 81       	ldd	r19, Y+4	; 0x04
    1a88:	89 81       	ldd	r24, Y+1	; 0x01
    1a8a:	9a 81       	ldd	r25, Y+2	; 0x02
    1a8c:	b9 01       	movw	r22, r18
    1a8e:	b0 de       	rcall	.-672    	; 0x17f0 <make_tcp_ack_with_data_noflags>
    1a90:	0f 90       	pop	r0
    1a92:	0f 90       	pop	r0
    1a94:	0f 90       	pop	r0
    1a96:	0f 90       	pop	r0
    1a98:	df 91       	pop	r29
    1a9a:	cf 91       	pop	r28
    1a9c:	08 95       	ret

00001a9e <register_ping_rec_callback>:
    1a9e:	cf 93       	push	r28
    1aa0:	df 93       	push	r29
    1aa2:	00 d0       	rcall	.+0      	; 0x1aa4 <register_ping_rec_callback+0x6>
    1aa4:	cd b7       	in	r28, 0x3d	; 61
    1aa6:	de b7       	in	r29, 0x3e	; 62
    1aa8:	9a 83       	std	Y+2, r25	; 0x02
    1aaa:	89 83       	std	Y+1, r24	; 0x01
    1aac:	89 81       	ldd	r24, Y+1	; 0x01
    1aae:	9a 81       	ldd	r25, Y+2	; 0x02
    1ab0:	90 93 1b 03 	sts	0x031B, r25
    1ab4:	80 93 1a 03 	sts	0x031A, r24
    1ab8:	0f 90       	pop	r0
    1aba:	0f 90       	pop	r0
    1abc:	df 91       	pop	r29
    1abe:	cf 91       	pop	r28
    1ac0:	08 95       	ret

00001ac2 <packetloop_arp_icmp_tcp>:
    1ac2:	cf 93       	push	r28
    1ac4:	df 93       	push	r29
    1ac6:	00 d0       	rcall	.+0      	; 0x1ac8 <packetloop_arp_icmp_tcp+0x6>
    1ac8:	00 d0       	rcall	.+0      	; 0x1aca <packetloop_arp_icmp_tcp+0x8>
    1aca:	00 d0       	rcall	.+0      	; 0x1acc <packetloop_arp_icmp_tcp+0xa>
    1acc:	cd b7       	in	r28, 0x3d	; 61
    1ace:	de b7       	in	r29, 0x3e	; 62
    1ad0:	9c 83       	std	Y+4, r25	; 0x04
    1ad2:	8b 83       	std	Y+3, r24	; 0x03
    1ad4:	7e 83       	std	Y+6, r23	; 0x06
    1ad6:	6d 83       	std	Y+5, r22	; 0x05
    1ad8:	2d 81       	ldd	r18, Y+5	; 0x05
    1ada:	3e 81       	ldd	r19, Y+6	; 0x06
    1adc:	8b 81       	ldd	r24, Y+3	; 0x03
    1ade:	9c 81       	ldd	r25, Y+4	; 0x04
    1ae0:	b9 01       	movw	r22, r18
    1ae2:	5b da       	rcall	.-2890   	; 0xf9a <eth_type_is_arp_and_my_ip>
    1ae4:	88 23       	and	r24, r24
    1ae6:	69 f0       	breq	.+26     	; 0x1b02 <packetloop_arp_icmp_tcp+0x40>
    1ae8:	8b 81       	ldd	r24, Y+3	; 0x03
    1aea:	9c 81       	ldd	r25, Y+4	; 0x04
    1aec:	45 96       	adiw	r24, 0x15	; 21
    1aee:	fc 01       	movw	r30, r24
    1af0:	80 81       	ld	r24, Z
    1af2:	81 30       	cpi	r24, 0x01	; 1
    1af4:	19 f4       	brne	.+6      	; 0x1afc <packetloop_arp_icmp_tcp+0x3a>
    1af6:	8b 81       	ldd	r24, Y+3	; 0x03
    1af8:	9c 81       	ldd	r25, Y+4	; 0x04
    1afa:	5f dc       	rcall	.-1858   	; 0x13ba <make_arp_answer_from_request>
    1afc:	80 e0       	ldi	r24, 0x00	; 0
    1afe:	90 e0       	ldi	r25, 0x00	; 0
    1b00:	bc c0       	rjmp	.+376    	; 0x1c7a <packetloop_arp_icmp_tcp+0x1b8>
    1b02:	2d 81       	ldd	r18, Y+5	; 0x05
    1b04:	3e 81       	ldd	r19, Y+6	; 0x06
    1b06:	8b 81       	ldd	r24, Y+3	; 0x03
    1b08:	9c 81       	ldd	r25, Y+4	; 0x04
    1b0a:	b9 01       	movw	r22, r18
    1b0c:	8d da       	rcall	.-2790   	; 0x1028 <eth_type_is_ip_and_my_ip>
    1b0e:	88 23       	and	r24, r24
    1b10:	19 f4       	brne	.+6      	; 0x1b18 <packetloop_arp_icmp_tcp+0x56>
    1b12:	80 e0       	ldi	r24, 0x00	; 0
    1b14:	90 e0       	ldi	r25, 0x00	; 0
    1b16:	b1 c0       	rjmp	.+354    	; 0x1c7a <packetloop_arp_icmp_tcp+0x1b8>
    1b18:	8b 81       	ldd	r24, Y+3	; 0x03
    1b1a:	9c 81       	ldd	r25, Y+4	; 0x04
    1b1c:	47 96       	adiw	r24, 0x17	; 23
    1b1e:	fc 01       	movw	r30, r24
    1b20:	80 81       	ld	r24, Z
    1b22:	81 30       	cpi	r24, 0x01	; 1
    1b24:	f9 f4       	brne	.+62     	; 0x1b64 <packetloop_arp_icmp_tcp+0xa2>
    1b26:	8b 81       	ldd	r24, Y+3	; 0x03
    1b28:	9c 81       	ldd	r25, Y+4	; 0x04
    1b2a:	82 96       	adiw	r24, 0x22	; 34
    1b2c:	fc 01       	movw	r30, r24
    1b2e:	80 81       	ld	r24, Z
    1b30:	88 30       	cpi	r24, 0x08	; 8
    1b32:	c1 f4       	brne	.+48     	; 0x1b64 <packetloop_arp_icmp_tcp+0xa2>
    1b34:	80 91 1a 03 	lds	r24, 0x031A
    1b38:	90 91 1b 03 	lds	r25, 0x031B
    1b3c:	00 97       	sbiw	r24, 0x00	; 0
    1b3e:	49 f0       	breq	.+18     	; 0x1b52 <packetloop_arp_icmp_tcp+0x90>
    1b40:	20 91 1a 03 	lds	r18, 0x031A
    1b44:	30 91 1b 03 	lds	r19, 0x031B
    1b48:	8b 81       	ldd	r24, Y+3	; 0x03
    1b4a:	9c 81       	ldd	r25, Y+4	; 0x04
    1b4c:	4a 96       	adiw	r24, 0x1a	; 26
    1b4e:	f9 01       	movw	r30, r18
    1b50:	09 95       	icall
    1b52:	2d 81       	ldd	r18, Y+5	; 0x05
    1b54:	3e 81       	ldd	r19, Y+6	; 0x06
    1b56:	8b 81       	ldd	r24, Y+3	; 0x03
    1b58:	9c 81       	ldd	r25, Y+4	; 0x04
    1b5a:	b9 01       	movw	r22, r18
    1b5c:	ac dc       	rcall	.-1704   	; 0x14b6 <make_echo_reply_from_request>
    1b5e:	80 e0       	ldi	r24, 0x00	; 0
    1b60:	90 e0       	ldi	r25, 0x00	; 0
    1b62:	8b c0       	rjmp	.+278    	; 0x1c7a <packetloop_arp_icmp_tcp+0x1b8>
    1b64:	8d 81       	ldd	r24, Y+5	; 0x05
    1b66:	9e 81       	ldd	r25, Y+6	; 0x06
    1b68:	86 33       	cpi	r24, 0x36	; 54
    1b6a:	91 05       	cpc	r25, r1
    1b6c:	50 f4       	brcc	.+20     	; 0x1b82 <packetloop_arp_icmp_tcp+0xc0>
    1b6e:	8b 81       	ldd	r24, Y+3	; 0x03
    1b70:	9c 81       	ldd	r25, Y+4	; 0x04
    1b72:	47 96       	adiw	r24, 0x17	; 23
    1b74:	fc 01       	movw	r30, r24
    1b76:	80 81       	ld	r24, Z
    1b78:	86 30       	cpi	r24, 0x06	; 6
    1b7a:	19 f0       	breq	.+6      	; 0x1b82 <packetloop_arp_icmp_tcp+0xc0>
    1b7c:	80 e0       	ldi	r24, 0x00	; 0
    1b7e:	90 e0       	ldi	r25, 0x00	; 0
    1b80:	7c c0       	rjmp	.+248    	; 0x1c7a <packetloop_arp_icmp_tcp+0x1b8>
    1b82:	8b 81       	ldd	r24, Y+3	; 0x03
    1b84:	9c 81       	ldd	r25, Y+4	; 0x04
    1b86:	47 96       	adiw	r24, 0x17	; 23
    1b88:	fc 01       	movw	r30, r24
    1b8a:	80 81       	ld	r24, Z
    1b8c:	86 30       	cpi	r24, 0x06	; 6
    1b8e:	09 f0       	breq	.+2      	; 0x1b92 <packetloop_arp_icmp_tcp+0xd0>
    1b90:	72 c0       	rjmp	.+228    	; 0x1c76 <packetloop_arp_icmp_tcp+0x1b4>
    1b92:	8b 81       	ldd	r24, Y+3	; 0x03
    1b94:	9c 81       	ldd	r25, Y+4	; 0x04
    1b96:	84 96       	adiw	r24, 0x24	; 36
    1b98:	fc 01       	movw	r30, r24
    1b9a:	90 81       	ld	r25, Z
    1b9c:	80 91 1c 03 	lds	r24, 0x031C
    1ba0:	98 17       	cp	r25, r24
    1ba2:	09 f0       	breq	.+2      	; 0x1ba6 <packetloop_arp_icmp_tcp+0xe4>
    1ba4:	68 c0       	rjmp	.+208    	; 0x1c76 <packetloop_arp_icmp_tcp+0x1b4>
    1ba6:	8b 81       	ldd	r24, Y+3	; 0x03
    1ba8:	9c 81       	ldd	r25, Y+4	; 0x04
    1baa:	85 96       	adiw	r24, 0x25	; 37
    1bac:	fc 01       	movw	r30, r24
    1bae:	90 81       	ld	r25, Z
    1bb0:	80 91 0b 01 	lds	r24, 0x010B
    1bb4:	98 17       	cp	r25, r24
    1bb6:	09 f0       	breq	.+2      	; 0x1bba <packetloop_arp_icmp_tcp+0xf8>
    1bb8:	5e c0       	rjmp	.+188    	; 0x1c76 <packetloop_arp_icmp_tcp+0x1b4>
    1bba:	8b 81       	ldd	r24, Y+3	; 0x03
    1bbc:	9c 81       	ldd	r25, Y+4	; 0x04
    1bbe:	8f 96       	adiw	r24, 0x2f	; 47
    1bc0:	fc 01       	movw	r30, r24
    1bc2:	80 81       	ld	r24, Z
    1bc4:	88 2f       	mov	r24, r24
    1bc6:	90 e0       	ldi	r25, 0x00	; 0
    1bc8:	82 70       	andi	r24, 0x02	; 2
    1bca:	99 27       	eor	r25, r25
    1bcc:	00 97       	sbiw	r24, 0x00	; 0
    1bce:	31 f0       	breq	.+12     	; 0x1bdc <packetloop_arp_icmp_tcp+0x11a>
    1bd0:	8b 81       	ldd	r24, Y+3	; 0x03
    1bd2:	9c 81       	ldd	r25, Y+4	; 0x04
    1bd4:	b0 de       	rcall	.-672    	; 0x1936 <make_tcp_synack_from_syn>
    1bd6:	80 e0       	ldi	r24, 0x00	; 0
    1bd8:	90 e0       	ldi	r25, 0x00	; 0
    1bda:	4f c0       	rjmp	.+158    	; 0x1c7a <packetloop_arp_icmp_tcp+0x1b8>
    1bdc:	8b 81       	ldd	r24, Y+3	; 0x03
    1bde:	9c 81       	ldd	r25, Y+4	; 0x04
    1be0:	8f 96       	adiw	r24, 0x2f	; 47
    1be2:	fc 01       	movw	r30, r24
    1be4:	80 81       	ld	r24, Z
    1be6:	88 2f       	mov	r24, r24
    1be8:	90 e0       	ldi	r25, 0x00	; 0
    1bea:	80 71       	andi	r24, 0x10	; 16
    1bec:	99 27       	eor	r25, r25
    1bee:	00 97       	sbiw	r24, 0x00	; 0
    1bf0:	09 f4       	brne	.+2      	; 0x1bf4 <packetloop_arp_icmp_tcp+0x132>
    1bf2:	41 c0       	rjmp	.+130    	; 0x1c76 <packetloop_arp_icmp_tcp+0x1b4>
    1bf4:	8b 81       	ldd	r24, Y+3	; 0x03
    1bf6:	9c 81       	ldd	r25, Y+4	; 0x04
    1bf8:	9b dc       	rcall	.-1738   	; 0x1530 <get_tcp_data_len>
    1bfa:	90 93 1e 03 	sts	0x031E, r25
    1bfe:	80 93 1d 03 	sts	0x031D, r24
    1c02:	80 91 1d 03 	lds	r24, 0x031D
    1c06:	90 91 1e 03 	lds	r25, 0x031E
    1c0a:	00 97       	sbiw	r24, 0x00	; 0
    1c0c:	a1 f4       	brne	.+40     	; 0x1c36 <packetloop_arp_icmp_tcp+0x174>
    1c0e:	8b 81       	ldd	r24, Y+3	; 0x03
    1c10:	9c 81       	ldd	r25, Y+4	; 0x04
    1c12:	8f 96       	adiw	r24, 0x2f	; 47
    1c14:	fc 01       	movw	r30, r24
    1c16:	80 81       	ld	r24, Z
    1c18:	88 2f       	mov	r24, r24
    1c1a:	90 e0       	ldi	r25, 0x00	; 0
    1c1c:	81 70       	andi	r24, 0x01	; 1
    1c1e:	99 27       	eor	r25, r25
    1c20:	00 97       	sbiw	r24, 0x00	; 0
    1c22:	31 f0       	breq	.+12     	; 0x1c30 <packetloop_arp_icmp_tcp+0x16e>
    1c24:	8b 81       	ldd	r24, Y+3	; 0x03
    1c26:	9c 81       	ldd	r25, Y+4	; 0x04
    1c28:	40 e0       	ldi	r20, 0x00	; 0
    1c2a:	60 e0       	ldi	r22, 0x00	; 0
    1c2c:	70 e0       	ldi	r23, 0x00	; 0
    1c2e:	65 dd       	rcall	.-1334   	; 0x16fa <make_tcp_ack_from_any>
    1c30:	80 e0       	ldi	r24, 0x00	; 0
    1c32:	90 e0       	ldi	r25, 0x00	; 0
    1c34:	22 c0       	rjmp	.+68     	; 0x1c7a <packetloop_arp_icmp_tcp+0x1b8>
    1c36:	8b 81       	ldd	r24, Y+3	; 0x03
    1c38:	9c 81       	ldd	r25, Y+4	; 0x04
    1c3a:	8e 96       	adiw	r24, 0x2e	; 46
    1c3c:	fc 01       	movw	r30, r24
    1c3e:	80 81       	ld	r24, Z
    1c40:	82 95       	swap	r24
    1c42:	8f 70       	andi	r24, 0x0F	; 15
    1c44:	88 2f       	mov	r24, r24
    1c46:	90 e0       	ldi	r25, 0x00	; 0
    1c48:	88 0f       	add	r24, r24
    1c4a:	99 1f       	adc	r25, r25
    1c4c:	88 0f       	add	r24, r24
    1c4e:	99 1f       	adc	r25, r25
    1c50:	82 96       	adiw	r24, 0x22	; 34
    1c52:	9a 83       	std	Y+2, r25	; 0x02
    1c54:	89 83       	std	Y+1, r24	; 0x01
    1c56:	8d 81       	ldd	r24, Y+5	; 0x05
    1c58:	9e 81       	ldd	r25, Y+6	; 0x06
    1c5a:	9c 01       	movw	r18, r24
    1c5c:	28 50       	subi	r18, 0x08	; 8
    1c5e:	31 09       	sbc	r19, r1
    1c60:	89 81       	ldd	r24, Y+1	; 0x01
    1c62:	9a 81       	ldd	r25, Y+2	; 0x02
    1c64:	28 17       	cp	r18, r24
    1c66:	39 07       	cpc	r19, r25
    1c68:	18 f4       	brcc	.+6      	; 0x1c70 <packetloop_arp_icmp_tcp+0x1ae>
    1c6a:	80 e0       	ldi	r24, 0x00	; 0
    1c6c:	90 e0       	ldi	r25, 0x00	; 0
    1c6e:	05 c0       	rjmp	.+10     	; 0x1c7a <packetloop_arp_icmp_tcp+0x1b8>
    1c70:	89 81       	ldd	r24, Y+1	; 0x01
    1c72:	9a 81       	ldd	r25, Y+2	; 0x02
    1c74:	02 c0       	rjmp	.+4      	; 0x1c7a <packetloop_arp_icmp_tcp+0x1b8>
    1c76:	80 e0       	ldi	r24, 0x00	; 0
    1c78:	90 e0       	ldi	r25, 0x00	; 0
    1c7a:	26 96       	adiw	r28, 0x06	; 6
    1c7c:	0f b6       	in	r0, 0x3f	; 63
    1c7e:	f8 94       	cli
    1c80:	de bf       	out	0x3e, r29	; 62
    1c82:	0f be       	out	0x3f, r0	; 63
    1c84:	cd bf       	out	0x3d, r28	; 61
    1c86:	df 91       	pop	r29
    1c88:	cf 91       	pop	r28
    1c8a:	08 95       	ret

00001c8c <vfprintf>:
    1c8c:	2f 92       	push	r2
    1c8e:	3f 92       	push	r3
    1c90:	4f 92       	push	r4
    1c92:	5f 92       	push	r5
    1c94:	6f 92       	push	r6
    1c96:	7f 92       	push	r7
    1c98:	8f 92       	push	r8
    1c9a:	9f 92       	push	r9
    1c9c:	af 92       	push	r10
    1c9e:	bf 92       	push	r11
    1ca0:	cf 92       	push	r12
    1ca2:	df 92       	push	r13
    1ca4:	ef 92       	push	r14
    1ca6:	ff 92       	push	r15
    1ca8:	0f 93       	push	r16
    1caa:	1f 93       	push	r17
    1cac:	cf 93       	push	r28
    1cae:	df 93       	push	r29
    1cb0:	cd b7       	in	r28, 0x3d	; 61
    1cb2:	de b7       	in	r29, 0x3e	; 62
    1cb4:	62 97       	sbiw	r28, 0x12	; 18
    1cb6:	0f b6       	in	r0, 0x3f	; 63
    1cb8:	f8 94       	cli
    1cba:	de bf       	out	0x3e, r29	; 62
    1cbc:	0f be       	out	0x3f, r0	; 63
    1cbe:	cd bf       	out	0x3d, r28	; 61
    1cc0:	7c 01       	movw	r14, r24
    1cc2:	1b 01       	movw	r2, r22
    1cc4:	6a 01       	movw	r12, r20
    1cc6:	fc 01       	movw	r30, r24
    1cc8:	17 82       	std	Z+7, r1	; 0x07
    1cca:	16 82       	std	Z+6, r1	; 0x06
    1ccc:	83 81       	ldd	r24, Z+3	; 0x03
    1cce:	81 fd       	sbrc	r24, 1
    1cd0:	03 c0       	rjmp	.+6      	; 0x1cd8 <vfprintf+0x4c>
    1cd2:	4e c3       	rjmp	.+1692   	; 0x2370 <vfprintf+0x6e4>
    1cd4:	65 01       	movw	r12, r10
    1cd6:	05 c0       	rjmp	.+10     	; 0x1ce2 <vfprintf+0x56>
    1cd8:	88 24       	eor	r8, r8
    1cda:	83 94       	inc	r8
    1cdc:	91 2c       	mov	r9, r1
    1cde:	8c 0e       	add	r8, r28
    1ce0:	9d 1e       	adc	r9, r29
    1ce2:	f7 01       	movw	r30, r14
    1ce4:	93 81       	ldd	r25, Z+3	; 0x03
    1ce6:	f1 01       	movw	r30, r2
    1ce8:	93 fd       	sbrc	r25, 3
    1cea:	85 91       	lpm	r24, Z+
    1cec:	93 ff       	sbrs	r25, 3
    1cee:	81 91       	ld	r24, Z+
    1cf0:	1f 01       	movw	r2, r30
    1cf2:	88 23       	and	r24, r24
    1cf4:	09 f4       	brne	.+2      	; 0x1cf8 <vfprintf+0x6c>
    1cf6:	38 c3       	rjmp	.+1648   	; 0x2368 <vfprintf+0x6dc>
    1cf8:	85 32       	cpi	r24, 0x25	; 37
    1cfa:	39 f4       	brne	.+14     	; 0x1d0a <vfprintf+0x7e>
    1cfc:	93 fd       	sbrc	r25, 3
    1cfe:	85 91       	lpm	r24, Z+
    1d00:	93 ff       	sbrs	r25, 3
    1d02:	81 91       	ld	r24, Z+
    1d04:	1f 01       	movw	r2, r30
    1d06:	85 32       	cpi	r24, 0x25	; 37
    1d08:	29 f4       	brne	.+10     	; 0x1d14 <vfprintf+0x88>
    1d0a:	b7 01       	movw	r22, r14
    1d0c:	90 e0       	ldi	r25, 0x00	; 0
    1d0e:	5d d5       	rcall	.+2746   	; 0x27ca <fputc>
    1d10:	56 01       	movw	r10, r12
    1d12:	e0 cf       	rjmp	.-64     	; 0x1cd4 <vfprintf+0x48>
    1d14:	71 2c       	mov	r7, r1
    1d16:	61 2c       	mov	r6, r1
    1d18:	20 e0       	ldi	r18, 0x00	; 0
    1d1a:	20 32       	cpi	r18, 0x20	; 32
    1d1c:	a8 f4       	brcc	.+42     	; 0x1d48 <vfprintf+0xbc>
    1d1e:	8b 32       	cpi	r24, 0x2B	; 43
    1d20:	61 f0       	breq	.+24     	; 0x1d3a <vfprintf+0xae>
    1d22:	28 f4       	brcc	.+10     	; 0x1d2e <vfprintf+0xa2>
    1d24:	80 32       	cpi	r24, 0x20	; 32
    1d26:	51 f0       	breq	.+20     	; 0x1d3c <vfprintf+0xb0>
    1d28:	83 32       	cpi	r24, 0x23	; 35
    1d2a:	71 f4       	brne	.+28     	; 0x1d48 <vfprintf+0xbc>
    1d2c:	0b c0       	rjmp	.+22     	; 0x1d44 <vfprintf+0xb8>
    1d2e:	8d 32       	cpi	r24, 0x2D	; 45
    1d30:	39 f0       	breq	.+14     	; 0x1d40 <vfprintf+0xb4>
    1d32:	80 33       	cpi	r24, 0x30	; 48
    1d34:	49 f4       	brne	.+18     	; 0x1d48 <vfprintf+0xbc>
    1d36:	21 60       	ori	r18, 0x01	; 1
    1d38:	28 c0       	rjmp	.+80     	; 0x1d8a <vfprintf+0xfe>
    1d3a:	22 60       	ori	r18, 0x02	; 2
    1d3c:	24 60       	ori	r18, 0x04	; 4
    1d3e:	25 c0       	rjmp	.+74     	; 0x1d8a <vfprintf+0xfe>
    1d40:	28 60       	ori	r18, 0x08	; 8
    1d42:	23 c0       	rjmp	.+70     	; 0x1d8a <vfprintf+0xfe>
    1d44:	20 61       	ori	r18, 0x10	; 16
    1d46:	21 c0       	rjmp	.+66     	; 0x1d8a <vfprintf+0xfe>
    1d48:	27 fd       	sbrc	r18, 7
    1d4a:	27 c0       	rjmp	.+78     	; 0x1d9a <vfprintf+0x10e>
    1d4c:	38 2f       	mov	r19, r24
    1d4e:	30 53       	subi	r19, 0x30	; 48
    1d50:	3a 30       	cpi	r19, 0x0A	; 10
    1d52:	78 f4       	brcc	.+30     	; 0x1d72 <vfprintf+0xe6>
    1d54:	26 ff       	sbrs	r18, 6
    1d56:	06 c0       	rjmp	.+12     	; 0x1d64 <vfprintf+0xd8>
    1d58:	fa e0       	ldi	r31, 0x0A	; 10
    1d5a:	7f 9e       	mul	r7, r31
    1d5c:	30 0d       	add	r19, r0
    1d5e:	11 24       	eor	r1, r1
    1d60:	73 2e       	mov	r7, r19
    1d62:	13 c0       	rjmp	.+38     	; 0x1d8a <vfprintf+0xfe>
    1d64:	4a e0       	ldi	r20, 0x0A	; 10
    1d66:	64 9e       	mul	r6, r20
    1d68:	30 0d       	add	r19, r0
    1d6a:	11 24       	eor	r1, r1
    1d6c:	63 2e       	mov	r6, r19
    1d6e:	20 62       	ori	r18, 0x20	; 32
    1d70:	0c c0       	rjmp	.+24     	; 0x1d8a <vfprintf+0xfe>
    1d72:	8e 32       	cpi	r24, 0x2E	; 46
    1d74:	21 f4       	brne	.+8      	; 0x1d7e <vfprintf+0xf2>
    1d76:	26 fd       	sbrc	r18, 6
    1d78:	f7 c2       	rjmp	.+1518   	; 0x2368 <vfprintf+0x6dc>
    1d7a:	20 64       	ori	r18, 0x40	; 64
    1d7c:	06 c0       	rjmp	.+12     	; 0x1d8a <vfprintf+0xfe>
    1d7e:	8c 36       	cpi	r24, 0x6C	; 108
    1d80:	11 f4       	brne	.+4      	; 0x1d86 <vfprintf+0xfa>
    1d82:	20 68       	ori	r18, 0x80	; 128
    1d84:	02 c0       	rjmp	.+4      	; 0x1d8a <vfprintf+0xfe>
    1d86:	88 36       	cpi	r24, 0x68	; 104
    1d88:	41 f4       	brne	.+16     	; 0x1d9a <vfprintf+0x10e>
    1d8a:	f1 01       	movw	r30, r2
    1d8c:	93 fd       	sbrc	r25, 3
    1d8e:	85 91       	lpm	r24, Z+
    1d90:	93 ff       	sbrs	r25, 3
    1d92:	81 91       	ld	r24, Z+
    1d94:	1f 01       	movw	r2, r30
    1d96:	81 11       	cpse	r24, r1
    1d98:	c0 cf       	rjmp	.-128    	; 0x1d1a <vfprintf+0x8e>
    1d9a:	98 2f       	mov	r25, r24
    1d9c:	95 54       	subi	r25, 0x45	; 69
    1d9e:	93 30       	cpi	r25, 0x03	; 3
    1da0:	18 f4       	brcc	.+6      	; 0x1da8 <vfprintf+0x11c>
    1da2:	20 61       	ori	r18, 0x10	; 16
    1da4:	80 5e       	subi	r24, 0xE0	; 224
    1da6:	06 c0       	rjmp	.+12     	; 0x1db4 <vfprintf+0x128>
    1da8:	98 2f       	mov	r25, r24
    1daa:	95 56       	subi	r25, 0x65	; 101
    1dac:	93 30       	cpi	r25, 0x03	; 3
    1dae:	08 f0       	brcs	.+2      	; 0x1db2 <vfprintf+0x126>
    1db0:	94 c1       	rjmp	.+808    	; 0x20da <vfprintf+0x44e>
    1db2:	2f 7e       	andi	r18, 0xEF	; 239
    1db4:	26 fd       	sbrc	r18, 6
    1db6:	02 c0       	rjmp	.+4      	; 0x1dbc <vfprintf+0x130>
    1db8:	16 e0       	ldi	r17, 0x06	; 6
    1dba:	71 2e       	mov	r7, r17
    1dbc:	bf e3       	ldi	r27, 0x3F	; 63
    1dbe:	5b 2e       	mov	r5, r27
    1dc0:	52 22       	and	r5, r18
    1dc2:	85 36       	cpi	r24, 0x65	; 101
    1dc4:	19 f4       	brne	.+6      	; 0x1dcc <vfprintf+0x140>
    1dc6:	f0 e4       	ldi	r31, 0x40	; 64
    1dc8:	5f 2a       	or	r5, r31
    1dca:	07 c0       	rjmp	.+14     	; 0x1dda <vfprintf+0x14e>
    1dcc:	86 36       	cpi	r24, 0x66	; 102
    1dce:	19 f4       	brne	.+6      	; 0x1dd6 <vfprintf+0x14a>
    1dd0:	40 e8       	ldi	r20, 0x80	; 128
    1dd2:	54 2a       	or	r5, r20
    1dd4:	02 c0       	rjmp	.+4      	; 0x1dda <vfprintf+0x14e>
    1dd6:	71 10       	cpse	r7, r1
    1dd8:	7a 94       	dec	r7
    1dda:	57 fe       	sbrs	r5, 7
    1ddc:	07 c0       	rjmp	.+14     	; 0x1dec <vfprintf+0x160>
    1dde:	5b e3       	ldi	r21, 0x3B	; 59
    1de0:	57 15       	cp	r21, r7
    1de2:	48 f0       	brcs	.+18     	; 0x1df6 <vfprintf+0x16a>
    1de4:	47 2c       	mov	r4, r7
    1de6:	43 94       	inc	r4
    1de8:	27 e0       	ldi	r18, 0x07	; 7
    1dea:	0d c0       	rjmp	.+26     	; 0x1e06 <vfprintf+0x17a>
    1dec:	87 e0       	ldi	r24, 0x07	; 7
    1dee:	87 15       	cp	r24, r7
    1df0:	30 f0       	brcs	.+12     	; 0x1dfe <vfprintf+0x172>
    1df2:	27 2d       	mov	r18, r7
    1df4:	07 c0       	rjmp	.+14     	; 0x1e04 <vfprintf+0x178>
    1df6:	27 e0       	ldi	r18, 0x07	; 7
    1df8:	ac e3       	ldi	r26, 0x3C	; 60
    1dfa:	4a 2e       	mov	r4, r26
    1dfc:	04 c0       	rjmp	.+8      	; 0x1e06 <vfprintf+0x17a>
    1dfe:	27 e0       	ldi	r18, 0x07	; 7
    1e00:	f7 e0       	ldi	r31, 0x07	; 7
    1e02:	7f 2e       	mov	r7, r31
    1e04:	41 2c       	mov	r4, r1
    1e06:	56 01       	movw	r10, r12
    1e08:	94 e0       	ldi	r25, 0x04	; 4
    1e0a:	a9 0e       	add	r10, r25
    1e0c:	b1 1c       	adc	r11, r1
    1e0e:	f6 01       	movw	r30, r12
    1e10:	60 81       	ld	r22, Z
    1e12:	71 81       	ldd	r23, Z+1	; 0x01
    1e14:	82 81       	ldd	r24, Z+2	; 0x02
    1e16:	93 81       	ldd	r25, Z+3	; 0x03
    1e18:	04 2d       	mov	r16, r4
    1e1a:	a4 01       	movw	r20, r8
    1e1c:	d1 d3       	rcall	.+1954   	; 0x25c0 <__ftoa_engine>
    1e1e:	8c 01       	movw	r16, r24
    1e20:	49 81       	ldd	r20, Y+1	; 0x01
    1e22:	4c 87       	std	Y+12, r20	; 0x0c
    1e24:	40 ff       	sbrs	r20, 0
    1e26:	02 c0       	rjmp	.+4      	; 0x1e2c <vfprintf+0x1a0>
    1e28:	43 ff       	sbrs	r20, 3
    1e2a:	07 c0       	rjmp	.+14     	; 0x1e3a <vfprintf+0x1ae>
    1e2c:	51 fc       	sbrc	r5, 1
    1e2e:	08 c0       	rjmp	.+16     	; 0x1e40 <vfprintf+0x1b4>
    1e30:	52 fe       	sbrs	r5, 2
    1e32:	09 c0       	rjmp	.+18     	; 0x1e46 <vfprintf+0x1ba>
    1e34:	e0 e2       	ldi	r30, 0x20	; 32
    1e36:	de 2e       	mov	r13, r30
    1e38:	07 c0       	rjmp	.+14     	; 0x1e48 <vfprintf+0x1bc>
    1e3a:	7d e2       	ldi	r23, 0x2D	; 45
    1e3c:	d7 2e       	mov	r13, r23
    1e3e:	04 c0       	rjmp	.+8      	; 0x1e48 <vfprintf+0x1bc>
    1e40:	6b e2       	ldi	r22, 0x2B	; 43
    1e42:	d6 2e       	mov	r13, r22
    1e44:	01 c0       	rjmp	.+2      	; 0x1e48 <vfprintf+0x1bc>
    1e46:	d1 2c       	mov	r13, r1
    1e48:	8c 85       	ldd	r24, Y+12	; 0x0c
    1e4a:	8c 70       	andi	r24, 0x0C	; 12
    1e4c:	89 f1       	breq	.+98     	; 0x1eb0 <vfprintf+0x224>
    1e4e:	dd 20       	and	r13, r13
    1e50:	11 f0       	breq	.+4      	; 0x1e56 <vfprintf+0x1ca>
    1e52:	84 e0       	ldi	r24, 0x04	; 4
    1e54:	01 c0       	rjmp	.+2      	; 0x1e58 <vfprintf+0x1cc>
    1e56:	83 e0       	ldi	r24, 0x03	; 3
    1e58:	86 15       	cp	r24, r6
    1e5a:	10 f0       	brcs	.+4      	; 0x1e60 <vfprintf+0x1d4>
    1e5c:	61 2c       	mov	r6, r1
    1e5e:	0a c0       	rjmp	.+20     	; 0x1e74 <vfprintf+0x1e8>
    1e60:	68 1a       	sub	r6, r24
    1e62:	53 fc       	sbrc	r5, 3
    1e64:	07 c0       	rjmp	.+14     	; 0x1e74 <vfprintf+0x1e8>
    1e66:	b7 01       	movw	r22, r14
    1e68:	80 e2       	ldi	r24, 0x20	; 32
    1e6a:	90 e0       	ldi	r25, 0x00	; 0
    1e6c:	ae d4       	rcall	.+2396   	; 0x27ca <fputc>
    1e6e:	6a 94       	dec	r6
    1e70:	d1 f7       	brne	.-12     	; 0x1e66 <vfprintf+0x1da>
    1e72:	f4 cf       	rjmp	.-24     	; 0x1e5c <vfprintf+0x1d0>
    1e74:	dd 20       	and	r13, r13
    1e76:	21 f0       	breq	.+8      	; 0x1e80 <vfprintf+0x1f4>
    1e78:	b7 01       	movw	r22, r14
    1e7a:	8d 2d       	mov	r24, r13
    1e7c:	90 e0       	ldi	r25, 0x00	; 0
    1e7e:	a5 d4       	rcall	.+2378   	; 0x27ca <fputc>
    1e80:	5c 85       	ldd	r21, Y+12	; 0x0c
    1e82:	53 fd       	sbrc	r21, 3
    1e84:	03 c0       	rjmp	.+6      	; 0x1e8c <vfprintf+0x200>
    1e86:	0b ea       	ldi	r16, 0xAB	; 171
    1e88:	11 e0       	ldi	r17, 0x01	; 1
    1e8a:	0b c0       	rjmp	.+22     	; 0x1ea2 <vfprintf+0x216>
    1e8c:	07 ea       	ldi	r16, 0xA7	; 167
    1e8e:	11 e0       	ldi	r17, 0x01	; 1
    1e90:	08 c0       	rjmp	.+16     	; 0x1ea2 <vfprintf+0x216>
    1e92:	51 10       	cpse	r5, r1
    1e94:	80 52       	subi	r24, 0x20	; 32
    1e96:	b7 01       	movw	r22, r14
    1e98:	90 e0       	ldi	r25, 0x00	; 0
    1e9a:	97 d4       	rcall	.+2350   	; 0x27ca <fputc>
    1e9c:	0f 5f       	subi	r16, 0xFF	; 255
    1e9e:	1f 4f       	sbci	r17, 0xFF	; 255
    1ea0:	02 c0       	rjmp	.+4      	; 0x1ea6 <vfprintf+0x21a>
    1ea2:	80 e1       	ldi	r24, 0x10	; 16
    1ea4:	58 22       	and	r5, r24
    1ea6:	f8 01       	movw	r30, r16
    1ea8:	84 91       	lpm	r24, Z
    1eaa:	81 11       	cpse	r24, r1
    1eac:	f2 cf       	rjmp	.-28     	; 0x1e92 <vfprintf+0x206>
    1eae:	59 c2       	rjmp	.+1202   	; 0x2362 <vfprintf+0x6d6>
    1eb0:	57 fe       	sbrs	r5, 7
    1eb2:	0e c0       	rjmp	.+28     	; 0x1ed0 <vfprintf+0x244>
    1eb4:	40 0e       	add	r4, r16
    1eb6:	4c 85       	ldd	r20, Y+12	; 0x0c
    1eb8:	44 ff       	sbrs	r20, 4
    1eba:	04 c0       	rjmp	.+8      	; 0x1ec4 <vfprintf+0x238>
    1ebc:	8a 81       	ldd	r24, Y+2	; 0x02
    1ebe:	81 33       	cpi	r24, 0x31	; 49
    1ec0:	09 f4       	brne	.+2      	; 0x1ec4 <vfprintf+0x238>
    1ec2:	4a 94       	dec	r4
    1ec4:	14 14       	cp	r1, r4
    1ec6:	4c f5       	brge	.+82     	; 0x1f1a <vfprintf+0x28e>
    1ec8:	58 e0       	ldi	r21, 0x08	; 8
    1eca:	54 15       	cp	r21, r4
    1ecc:	48 f1       	brcs	.+82     	; 0x1f20 <vfprintf+0x294>
    1ece:	2c c0       	rjmp	.+88     	; 0x1f28 <vfprintf+0x29c>
    1ed0:	56 fc       	sbrc	r5, 6
    1ed2:	2a c0       	rjmp	.+84     	; 0x1f28 <vfprintf+0x29c>
    1ed4:	87 2d       	mov	r24, r7
    1ed6:	90 e0       	ldi	r25, 0x00	; 0
    1ed8:	80 17       	cp	r24, r16
    1eda:	91 07       	cpc	r25, r17
    1edc:	44 f0       	brlt	.+16     	; 0x1eee <vfprintf+0x262>
    1ede:	0c 3f       	cpi	r16, 0xFC	; 252
    1ee0:	8f ef       	ldi	r24, 0xFF	; 255
    1ee2:	18 07       	cpc	r17, r24
    1ee4:	24 f0       	brlt	.+8      	; 0x1eee <vfprintf+0x262>
    1ee6:	90 e8       	ldi	r25, 0x80	; 128
    1ee8:	59 2a       	or	r5, r25
    1eea:	01 c0       	rjmp	.+2      	; 0x1eee <vfprintf+0x262>
    1eec:	7a 94       	dec	r7
    1eee:	77 20       	and	r7, r7
    1ef0:	49 f0       	breq	.+18     	; 0x1f04 <vfprintf+0x278>
    1ef2:	e2 e0       	ldi	r30, 0x02	; 2
    1ef4:	f0 e0       	ldi	r31, 0x00	; 0
    1ef6:	ec 0f       	add	r30, r28
    1ef8:	fd 1f       	adc	r31, r29
    1efa:	e7 0d       	add	r30, r7
    1efc:	f1 1d       	adc	r31, r1
    1efe:	80 81       	ld	r24, Z
    1f00:	80 33       	cpi	r24, 0x30	; 48
    1f02:	a1 f3       	breq	.-24     	; 0x1eec <vfprintf+0x260>
    1f04:	57 fe       	sbrs	r5, 7
    1f06:	10 c0       	rjmp	.+32     	; 0x1f28 <vfprintf+0x29c>
    1f08:	47 2c       	mov	r4, r7
    1f0a:	43 94       	inc	r4
    1f0c:	87 2d       	mov	r24, r7
    1f0e:	90 e0       	ldi	r25, 0x00	; 0
    1f10:	08 17       	cp	r16, r24
    1f12:	19 07       	cpc	r17, r25
    1f14:	44 f4       	brge	.+16     	; 0x1f26 <vfprintf+0x29a>
    1f16:	70 1a       	sub	r7, r16
    1f18:	07 c0       	rjmp	.+14     	; 0x1f28 <vfprintf+0x29c>
    1f1a:	44 24       	eor	r4, r4
    1f1c:	43 94       	inc	r4
    1f1e:	04 c0       	rjmp	.+8      	; 0x1f28 <vfprintf+0x29c>
    1f20:	58 e0       	ldi	r21, 0x08	; 8
    1f22:	45 2e       	mov	r4, r21
    1f24:	01 c0       	rjmp	.+2      	; 0x1f28 <vfprintf+0x29c>
    1f26:	71 2c       	mov	r7, r1
    1f28:	57 fe       	sbrs	r5, 7
    1f2a:	07 c0       	rjmp	.+14     	; 0x1f3a <vfprintf+0x2ae>
    1f2c:	10 16       	cp	r1, r16
    1f2e:	11 06       	cpc	r1, r17
    1f30:	3c f4       	brge	.+14     	; 0x1f40 <vfprintf+0x2b4>
    1f32:	98 01       	movw	r18, r16
    1f34:	2f 5f       	subi	r18, 0xFF	; 255
    1f36:	3f 4f       	sbci	r19, 0xFF	; 255
    1f38:	05 c0       	rjmp	.+10     	; 0x1f44 <vfprintf+0x2b8>
    1f3a:	25 e0       	ldi	r18, 0x05	; 5
    1f3c:	30 e0       	ldi	r19, 0x00	; 0
    1f3e:	02 c0       	rjmp	.+4      	; 0x1f44 <vfprintf+0x2b8>
    1f40:	21 e0       	ldi	r18, 0x01	; 1
    1f42:	30 e0       	ldi	r19, 0x00	; 0
    1f44:	dd 20       	and	r13, r13
    1f46:	11 f0       	breq	.+4      	; 0x1f4c <vfprintf+0x2c0>
    1f48:	2f 5f       	subi	r18, 0xFF	; 255
    1f4a:	3f 4f       	sbci	r19, 0xFF	; 255
    1f4c:	77 20       	and	r7, r7
    1f4e:	31 f0       	breq	.+12     	; 0x1f5c <vfprintf+0x2d0>
    1f50:	47 2d       	mov	r20, r7
    1f52:	50 e0       	ldi	r21, 0x00	; 0
    1f54:	4f 5f       	subi	r20, 0xFF	; 255
    1f56:	5f 4f       	sbci	r21, 0xFF	; 255
    1f58:	24 0f       	add	r18, r20
    1f5a:	35 1f       	adc	r19, r21
    1f5c:	46 2d       	mov	r20, r6
    1f5e:	50 e0       	ldi	r21, 0x00	; 0
    1f60:	24 17       	cp	r18, r20
    1f62:	35 07       	cpc	r19, r21
    1f64:	14 f4       	brge	.+4      	; 0x1f6a <vfprintf+0x2de>
    1f66:	62 1a       	sub	r6, r18
    1f68:	01 c0       	rjmp	.+2      	; 0x1f6c <vfprintf+0x2e0>
    1f6a:	61 2c       	mov	r6, r1
    1f6c:	85 2d       	mov	r24, r5
    1f6e:	89 70       	andi	r24, 0x09	; 9
    1f70:	41 f4       	brne	.+16     	; 0x1f82 <vfprintf+0x2f6>
    1f72:	05 c0       	rjmp	.+10     	; 0x1f7e <vfprintf+0x2f2>
    1f74:	b7 01       	movw	r22, r14
    1f76:	80 e2       	ldi	r24, 0x20	; 32
    1f78:	90 e0       	ldi	r25, 0x00	; 0
    1f7a:	27 d4       	rcall	.+2126   	; 0x27ca <fputc>
    1f7c:	6a 94       	dec	r6
    1f7e:	61 10       	cpse	r6, r1
    1f80:	f9 cf       	rjmp	.-14     	; 0x1f74 <vfprintf+0x2e8>
    1f82:	dd 20       	and	r13, r13
    1f84:	21 f0       	breq	.+8      	; 0x1f8e <vfprintf+0x302>
    1f86:	b7 01       	movw	r22, r14
    1f88:	8d 2d       	mov	r24, r13
    1f8a:	90 e0       	ldi	r25, 0x00	; 0
    1f8c:	1e d4       	rcall	.+2108   	; 0x27ca <fputc>
    1f8e:	53 fc       	sbrc	r5, 3
    1f90:	08 c0       	rjmp	.+16     	; 0x1fa2 <vfprintf+0x316>
    1f92:	05 c0       	rjmp	.+10     	; 0x1f9e <vfprintf+0x312>
    1f94:	b7 01       	movw	r22, r14
    1f96:	80 e3       	ldi	r24, 0x30	; 48
    1f98:	90 e0       	ldi	r25, 0x00	; 0
    1f9a:	17 d4       	rcall	.+2094   	; 0x27ca <fputc>
    1f9c:	6a 94       	dec	r6
    1f9e:	61 10       	cpse	r6, r1
    1fa0:	f9 cf       	rjmp	.-14     	; 0x1f94 <vfprintf+0x308>
    1fa2:	57 fe       	sbrs	r5, 7
    1fa4:	54 c0       	rjmp	.+168    	; 0x204e <vfprintf+0x3c2>
    1fa6:	68 01       	movw	r12, r16
    1fa8:	17 ff       	sbrs	r17, 7
    1faa:	02 c0       	rjmp	.+4      	; 0x1fb0 <vfprintf+0x324>
    1fac:	c1 2c       	mov	r12, r1
    1fae:	d1 2c       	mov	r13, r1
    1fb0:	20 e0       	ldi	r18, 0x00	; 0
    1fb2:	30 e0       	ldi	r19, 0x00	; 0
    1fb4:	a8 01       	movw	r20, r16
    1fb6:	44 19       	sub	r20, r4
    1fb8:	51 09       	sbc	r21, r1
    1fba:	5e 87       	std	Y+14, r21	; 0x0e
    1fbc:	4d 87       	std	Y+13, r20	; 0x0d
    1fbe:	28 01       	movw	r4, r16
    1fc0:	4c 18       	sub	r4, r12
    1fc2:	5d 08       	sbc	r5, r13
    1fc4:	48 0c       	add	r4, r8
    1fc6:	59 1c       	adc	r5, r9
    1fc8:	87 2d       	mov	r24, r7
    1fca:	90 e0       	ldi	r25, 0x00	; 0
    1fcc:	44 27       	eor	r20, r20
    1fce:	55 27       	eor	r21, r21
    1fd0:	48 1b       	sub	r20, r24
    1fd2:	59 0b       	sbc	r21, r25
    1fd4:	58 8b       	std	Y+16, r21	; 0x10
    1fd6:	4f 87       	std	Y+15, r20	; 0x0f
    1fd8:	5f ef       	ldi	r21, 0xFF	; 255
    1fda:	c5 16       	cp	r12, r21
    1fdc:	d5 06       	cpc	r13, r21
    1fde:	41 f4       	brne	.+16     	; 0x1ff0 <vfprintf+0x364>
    1fe0:	b7 01       	movw	r22, r14
    1fe2:	8e e2       	ldi	r24, 0x2E	; 46
    1fe4:	90 e0       	ldi	r25, 0x00	; 0
    1fe6:	2a 8b       	std	Y+18, r18	; 0x12
    1fe8:	39 8b       	std	Y+17, r19	; 0x11
    1fea:	ef d3       	rcall	.+2014   	; 0x27ca <fputc>
    1fec:	39 89       	ldd	r19, Y+17	; 0x11
    1fee:	2a 89       	ldd	r18, Y+18	; 0x12
    1ff0:	0c 15       	cp	r16, r12
    1ff2:	1d 05       	cpc	r17, r13
    1ff4:	54 f0       	brlt	.+20     	; 0x200a <vfprintf+0x37e>
    1ff6:	4d 85       	ldd	r20, Y+13	; 0x0d
    1ff8:	5e 85       	ldd	r21, Y+14	; 0x0e
    1ffa:	4c 15       	cp	r20, r12
    1ffc:	5d 05       	cpc	r21, r13
    1ffe:	2c f4       	brge	.+10     	; 0x200a <vfprintf+0x37e>
    2000:	f2 01       	movw	r30, r4
    2002:	e2 0f       	add	r30, r18
    2004:	f3 1f       	adc	r31, r19
    2006:	81 81       	ldd	r24, Z+1	; 0x01
    2008:	01 c0       	rjmp	.+2      	; 0x200c <vfprintf+0x380>
    200a:	80 e3       	ldi	r24, 0x30	; 48
    200c:	51 e0       	ldi	r21, 0x01	; 1
    200e:	c5 1a       	sub	r12, r21
    2010:	d1 08       	sbc	r13, r1
    2012:	2f 5f       	subi	r18, 0xFF	; 255
    2014:	3f 4f       	sbci	r19, 0xFF	; 255
    2016:	4f 85       	ldd	r20, Y+15	; 0x0f
    2018:	58 89       	ldd	r21, Y+16	; 0x10
    201a:	c4 16       	cp	r12, r20
    201c:	d5 06       	cpc	r13, r21
    201e:	44 f0       	brlt	.+16     	; 0x2030 <vfprintf+0x3a4>
    2020:	b7 01       	movw	r22, r14
    2022:	90 e0       	ldi	r25, 0x00	; 0
    2024:	2a 8b       	std	Y+18, r18	; 0x12
    2026:	39 8b       	std	Y+17, r19	; 0x11
    2028:	d0 d3       	rcall	.+1952   	; 0x27ca <fputc>
    202a:	2a 89       	ldd	r18, Y+18	; 0x12
    202c:	39 89       	ldd	r19, Y+17	; 0x11
    202e:	d4 cf       	rjmp	.-88     	; 0x1fd8 <vfprintf+0x34c>
    2030:	c0 16       	cp	r12, r16
    2032:	d1 06       	cpc	r13, r17
    2034:	49 f4       	brne	.+18     	; 0x2048 <vfprintf+0x3bc>
    2036:	9a 81       	ldd	r25, Y+2	; 0x02
    2038:	96 33       	cpi	r25, 0x36	; 54
    203a:	28 f4       	brcc	.+10     	; 0x2046 <vfprintf+0x3ba>
    203c:	95 33       	cpi	r25, 0x35	; 53
    203e:	21 f4       	brne	.+8      	; 0x2048 <vfprintf+0x3bc>
    2040:	5c 85       	ldd	r21, Y+12	; 0x0c
    2042:	54 fd       	sbrc	r21, 4
    2044:	01 c0       	rjmp	.+2      	; 0x2048 <vfprintf+0x3bc>
    2046:	81 e3       	ldi	r24, 0x31	; 49
    2048:	b7 01       	movw	r22, r14
    204a:	90 e0       	ldi	r25, 0x00	; 0
    204c:	44 c0       	rjmp	.+136    	; 0x20d6 <vfprintf+0x44a>
    204e:	8a 81       	ldd	r24, Y+2	; 0x02
    2050:	81 33       	cpi	r24, 0x31	; 49
    2052:	19 f0       	breq	.+6      	; 0x205a <vfprintf+0x3ce>
    2054:	4c 85       	ldd	r20, Y+12	; 0x0c
    2056:	4f 7e       	andi	r20, 0xEF	; 239
    2058:	4c 87       	std	Y+12, r20	; 0x0c
    205a:	b7 01       	movw	r22, r14
    205c:	90 e0       	ldi	r25, 0x00	; 0
    205e:	b5 d3       	rcall	.+1898   	; 0x27ca <fputc>
    2060:	71 10       	cpse	r7, r1
    2062:	05 c0       	rjmp	.+10     	; 0x206e <vfprintf+0x3e2>
    2064:	54 fe       	sbrs	r5, 4
    2066:	14 c0       	rjmp	.+40     	; 0x2090 <vfprintf+0x404>
    2068:	85 e4       	ldi	r24, 0x45	; 69
    206a:	90 e0       	ldi	r25, 0x00	; 0
    206c:	13 c0       	rjmp	.+38     	; 0x2094 <vfprintf+0x408>
    206e:	b7 01       	movw	r22, r14
    2070:	8e e2       	ldi	r24, 0x2E	; 46
    2072:	90 e0       	ldi	r25, 0x00	; 0
    2074:	aa d3       	rcall	.+1876   	; 0x27ca <fputc>
    2076:	42 e0       	ldi	r20, 0x02	; 2
    2078:	d4 2e       	mov	r13, r20
    207a:	f4 01       	movw	r30, r8
    207c:	ed 0d       	add	r30, r13
    207e:	f1 1d       	adc	r31, r1
    2080:	d3 94       	inc	r13
    2082:	b7 01       	movw	r22, r14
    2084:	80 81       	ld	r24, Z
    2086:	90 e0       	ldi	r25, 0x00	; 0
    2088:	a0 d3       	rcall	.+1856   	; 0x27ca <fputc>
    208a:	7a 94       	dec	r7
    208c:	b1 f7       	brne	.-20     	; 0x207a <vfprintf+0x3ee>
    208e:	ea cf       	rjmp	.-44     	; 0x2064 <vfprintf+0x3d8>
    2090:	85 e6       	ldi	r24, 0x65	; 101
    2092:	90 e0       	ldi	r25, 0x00	; 0
    2094:	b7 01       	movw	r22, r14
    2096:	99 d3       	rcall	.+1842   	; 0x27ca <fputc>
    2098:	17 fd       	sbrc	r17, 7
    209a:	06 c0       	rjmp	.+12     	; 0x20a8 <vfprintf+0x41c>
    209c:	01 15       	cp	r16, r1
    209e:	11 05       	cpc	r17, r1
    20a0:	41 f4       	brne	.+16     	; 0x20b2 <vfprintf+0x426>
    20a2:	5c 85       	ldd	r21, Y+12	; 0x0c
    20a4:	54 ff       	sbrs	r21, 4
    20a6:	05 c0       	rjmp	.+10     	; 0x20b2 <vfprintf+0x426>
    20a8:	11 95       	neg	r17
    20aa:	01 95       	neg	r16
    20ac:	11 09       	sbc	r17, r1
    20ae:	8d e2       	ldi	r24, 0x2D	; 45
    20b0:	01 c0       	rjmp	.+2      	; 0x20b4 <vfprintf+0x428>
    20b2:	8b e2       	ldi	r24, 0x2B	; 43
    20b4:	b7 01       	movw	r22, r14
    20b6:	90 e0       	ldi	r25, 0x00	; 0
    20b8:	88 d3       	rcall	.+1808   	; 0x27ca <fputc>
    20ba:	80 e3       	ldi	r24, 0x30	; 48
    20bc:	03 c0       	rjmp	.+6      	; 0x20c4 <vfprintf+0x438>
    20be:	8f 5f       	subi	r24, 0xFF	; 255
    20c0:	0a 50       	subi	r16, 0x0A	; 10
    20c2:	11 09       	sbc	r17, r1
    20c4:	0a 30       	cpi	r16, 0x0A	; 10
    20c6:	11 05       	cpc	r17, r1
    20c8:	d4 f7       	brge	.-12     	; 0x20be <vfprintf+0x432>
    20ca:	b7 01       	movw	r22, r14
    20cc:	90 e0       	ldi	r25, 0x00	; 0
    20ce:	7d d3       	rcall	.+1786   	; 0x27ca <fputc>
    20d0:	b7 01       	movw	r22, r14
    20d2:	c8 01       	movw	r24, r16
    20d4:	c0 96       	adiw	r24, 0x30	; 48
    20d6:	79 d3       	rcall	.+1778   	; 0x27ca <fputc>
    20d8:	44 c1       	rjmp	.+648    	; 0x2362 <vfprintf+0x6d6>
    20da:	83 36       	cpi	r24, 0x63	; 99
    20dc:	31 f0       	breq	.+12     	; 0x20ea <vfprintf+0x45e>
    20de:	83 37       	cpi	r24, 0x73	; 115
    20e0:	81 f0       	breq	.+32     	; 0x2102 <vfprintf+0x476>
    20e2:	83 35       	cpi	r24, 0x53	; 83
    20e4:	09 f0       	breq	.+2      	; 0x20e8 <vfprintf+0x45c>
    20e6:	5a c0       	rjmp	.+180    	; 0x219c <vfprintf+0x510>
    20e8:	23 c0       	rjmp	.+70     	; 0x2130 <vfprintf+0x4a4>
    20ea:	56 01       	movw	r10, r12
    20ec:	82 e0       	ldi	r24, 0x02	; 2
    20ee:	a8 0e       	add	r10, r24
    20f0:	b1 1c       	adc	r11, r1
    20f2:	f6 01       	movw	r30, r12
    20f4:	80 81       	ld	r24, Z
    20f6:	89 83       	std	Y+1, r24	; 0x01
    20f8:	cc 24       	eor	r12, r12
    20fa:	c3 94       	inc	r12
    20fc:	d1 2c       	mov	r13, r1
    20fe:	84 01       	movw	r16, r8
    2100:	13 c0       	rjmp	.+38     	; 0x2128 <vfprintf+0x49c>
    2102:	56 01       	movw	r10, r12
    2104:	f2 e0       	ldi	r31, 0x02	; 2
    2106:	af 0e       	add	r10, r31
    2108:	b1 1c       	adc	r11, r1
    210a:	f6 01       	movw	r30, r12
    210c:	00 81       	ld	r16, Z
    210e:	11 81       	ldd	r17, Z+1	; 0x01
    2110:	26 ff       	sbrs	r18, 6
    2112:	03 c0       	rjmp	.+6      	; 0x211a <vfprintf+0x48e>
    2114:	67 2d       	mov	r22, r7
    2116:	70 e0       	ldi	r23, 0x00	; 0
    2118:	02 c0       	rjmp	.+4      	; 0x211e <vfprintf+0x492>
    211a:	6f ef       	ldi	r22, 0xFF	; 255
    211c:	7f ef       	ldi	r23, 0xFF	; 255
    211e:	c8 01       	movw	r24, r16
    2120:	2a 8b       	std	Y+18, r18	; 0x12
    2122:	48 d3       	rcall	.+1680   	; 0x27b4 <strnlen>
    2124:	6c 01       	movw	r12, r24
    2126:	2a 89       	ldd	r18, Y+18	; 0x12
    2128:	9f e7       	ldi	r25, 0x7F	; 127
    212a:	59 2e       	mov	r5, r25
    212c:	52 22       	and	r5, r18
    212e:	16 c0       	rjmp	.+44     	; 0x215c <vfprintf+0x4d0>
    2130:	56 01       	movw	r10, r12
    2132:	f2 e0       	ldi	r31, 0x02	; 2
    2134:	af 0e       	add	r10, r31
    2136:	b1 1c       	adc	r11, r1
    2138:	f6 01       	movw	r30, r12
    213a:	00 81       	ld	r16, Z
    213c:	11 81       	ldd	r17, Z+1	; 0x01
    213e:	26 ff       	sbrs	r18, 6
    2140:	03 c0       	rjmp	.+6      	; 0x2148 <vfprintf+0x4bc>
    2142:	67 2d       	mov	r22, r7
    2144:	70 e0       	ldi	r23, 0x00	; 0
    2146:	02 c0       	rjmp	.+4      	; 0x214c <vfprintf+0x4c0>
    2148:	6f ef       	ldi	r22, 0xFF	; 255
    214a:	7f ef       	ldi	r23, 0xFF	; 255
    214c:	c8 01       	movw	r24, r16
    214e:	2a 8b       	std	Y+18, r18	; 0x12
    2150:	0f d3       	rcall	.+1566   	; 0x2770 <strnlen_P>
    2152:	6c 01       	movw	r12, r24
    2154:	2a 89       	ldd	r18, Y+18	; 0x12
    2156:	80 e8       	ldi	r24, 0x80	; 128
    2158:	58 2e       	mov	r5, r24
    215a:	52 2a       	or	r5, r18
    215c:	53 fc       	sbrc	r5, 3
    215e:	1a c0       	rjmp	.+52     	; 0x2194 <vfprintf+0x508>
    2160:	05 c0       	rjmp	.+10     	; 0x216c <vfprintf+0x4e0>
    2162:	b7 01       	movw	r22, r14
    2164:	80 e2       	ldi	r24, 0x20	; 32
    2166:	90 e0       	ldi	r25, 0x00	; 0
    2168:	30 d3       	rcall	.+1632   	; 0x27ca <fputc>
    216a:	6a 94       	dec	r6
    216c:	86 2d       	mov	r24, r6
    216e:	90 e0       	ldi	r25, 0x00	; 0
    2170:	c8 16       	cp	r12, r24
    2172:	d9 06       	cpc	r13, r25
    2174:	b0 f3       	brcs	.-20     	; 0x2162 <vfprintf+0x4d6>
    2176:	0e c0       	rjmp	.+28     	; 0x2194 <vfprintf+0x508>
    2178:	f8 01       	movw	r30, r16
    217a:	57 fc       	sbrc	r5, 7
    217c:	85 91       	lpm	r24, Z+
    217e:	57 fe       	sbrs	r5, 7
    2180:	81 91       	ld	r24, Z+
    2182:	8f 01       	movw	r16, r30
    2184:	b7 01       	movw	r22, r14
    2186:	90 e0       	ldi	r25, 0x00	; 0
    2188:	20 d3       	rcall	.+1600   	; 0x27ca <fputc>
    218a:	61 10       	cpse	r6, r1
    218c:	6a 94       	dec	r6
    218e:	f1 e0       	ldi	r31, 0x01	; 1
    2190:	cf 1a       	sub	r12, r31
    2192:	d1 08       	sbc	r13, r1
    2194:	c1 14       	cp	r12, r1
    2196:	d1 04       	cpc	r13, r1
    2198:	79 f7       	brne	.-34     	; 0x2178 <vfprintf+0x4ec>
    219a:	e3 c0       	rjmp	.+454    	; 0x2362 <vfprintf+0x6d6>
    219c:	84 36       	cpi	r24, 0x64	; 100
    219e:	11 f0       	breq	.+4      	; 0x21a4 <vfprintf+0x518>
    21a0:	89 36       	cpi	r24, 0x69	; 105
    21a2:	49 f5       	brne	.+82     	; 0x21f6 <vfprintf+0x56a>
    21a4:	56 01       	movw	r10, r12
    21a6:	27 ff       	sbrs	r18, 7
    21a8:	09 c0       	rjmp	.+18     	; 0x21bc <vfprintf+0x530>
    21aa:	44 e0       	ldi	r20, 0x04	; 4
    21ac:	a4 0e       	add	r10, r20
    21ae:	b1 1c       	adc	r11, r1
    21b0:	f6 01       	movw	r30, r12
    21b2:	60 81       	ld	r22, Z
    21b4:	71 81       	ldd	r23, Z+1	; 0x01
    21b6:	82 81       	ldd	r24, Z+2	; 0x02
    21b8:	93 81       	ldd	r25, Z+3	; 0x03
    21ba:	0a c0       	rjmp	.+20     	; 0x21d0 <vfprintf+0x544>
    21bc:	f2 e0       	ldi	r31, 0x02	; 2
    21be:	af 0e       	add	r10, r31
    21c0:	b1 1c       	adc	r11, r1
    21c2:	f6 01       	movw	r30, r12
    21c4:	60 81       	ld	r22, Z
    21c6:	71 81       	ldd	r23, Z+1	; 0x01
    21c8:	88 27       	eor	r24, r24
    21ca:	77 fd       	sbrc	r23, 7
    21cc:	80 95       	com	r24
    21ce:	98 2f       	mov	r25, r24
    21d0:	12 2f       	mov	r17, r18
    21d2:	1f 76       	andi	r17, 0x6F	; 111
    21d4:	97 ff       	sbrs	r25, 7
    21d6:	08 c0       	rjmp	.+16     	; 0x21e8 <vfprintf+0x55c>
    21d8:	90 95       	com	r25
    21da:	80 95       	com	r24
    21dc:	70 95       	com	r23
    21de:	61 95       	neg	r22
    21e0:	7f 4f       	sbci	r23, 0xFF	; 255
    21e2:	8f 4f       	sbci	r24, 0xFF	; 255
    21e4:	9f 4f       	sbci	r25, 0xFF	; 255
    21e6:	10 68       	ori	r17, 0x80	; 128
    21e8:	2a e0       	ldi	r18, 0x0A	; 10
    21ea:	30 e0       	ldi	r19, 0x00	; 0
    21ec:	a4 01       	movw	r20, r8
    21ee:	47 d3       	rcall	.+1678   	; 0x287e <__ultoa_invert>
    21f0:	d8 2e       	mov	r13, r24
    21f2:	d8 18       	sub	r13, r8
    21f4:	3f c0       	rjmp	.+126    	; 0x2274 <vfprintf+0x5e8>
    21f6:	12 2f       	mov	r17, r18
    21f8:	85 37       	cpi	r24, 0x75	; 117
    21fa:	21 f4       	brne	.+8      	; 0x2204 <vfprintf+0x578>
    21fc:	1f 7e       	andi	r17, 0xEF	; 239
    21fe:	2a e0       	ldi	r18, 0x0A	; 10
    2200:	30 e0       	ldi	r19, 0x00	; 0
    2202:	1f c0       	rjmp	.+62     	; 0x2242 <vfprintf+0x5b6>
    2204:	19 7f       	andi	r17, 0xF9	; 249
    2206:	8f 36       	cpi	r24, 0x6F	; 111
    2208:	a1 f0       	breq	.+40     	; 0x2232 <vfprintf+0x5a6>
    220a:	20 f4       	brcc	.+8      	; 0x2214 <vfprintf+0x588>
    220c:	88 35       	cpi	r24, 0x58	; 88
    220e:	09 f0       	breq	.+2      	; 0x2212 <vfprintf+0x586>
    2210:	ab c0       	rjmp	.+342    	; 0x2368 <vfprintf+0x6dc>
    2212:	0b c0       	rjmp	.+22     	; 0x222a <vfprintf+0x59e>
    2214:	80 37       	cpi	r24, 0x70	; 112
    2216:	21 f0       	breq	.+8      	; 0x2220 <vfprintf+0x594>
    2218:	88 37       	cpi	r24, 0x78	; 120
    221a:	09 f0       	breq	.+2      	; 0x221e <vfprintf+0x592>
    221c:	a5 c0       	rjmp	.+330    	; 0x2368 <vfprintf+0x6dc>
    221e:	01 c0       	rjmp	.+2      	; 0x2222 <vfprintf+0x596>
    2220:	10 61       	ori	r17, 0x10	; 16
    2222:	14 ff       	sbrs	r17, 4
    2224:	09 c0       	rjmp	.+18     	; 0x2238 <vfprintf+0x5ac>
    2226:	14 60       	ori	r17, 0x04	; 4
    2228:	07 c0       	rjmp	.+14     	; 0x2238 <vfprintf+0x5ac>
    222a:	24 ff       	sbrs	r18, 4
    222c:	08 c0       	rjmp	.+16     	; 0x223e <vfprintf+0x5b2>
    222e:	16 60       	ori	r17, 0x06	; 6
    2230:	06 c0       	rjmp	.+12     	; 0x223e <vfprintf+0x5b2>
    2232:	28 e0       	ldi	r18, 0x08	; 8
    2234:	30 e0       	ldi	r19, 0x00	; 0
    2236:	05 c0       	rjmp	.+10     	; 0x2242 <vfprintf+0x5b6>
    2238:	20 e1       	ldi	r18, 0x10	; 16
    223a:	30 e0       	ldi	r19, 0x00	; 0
    223c:	02 c0       	rjmp	.+4      	; 0x2242 <vfprintf+0x5b6>
    223e:	20 e1       	ldi	r18, 0x10	; 16
    2240:	32 e0       	ldi	r19, 0x02	; 2
    2242:	56 01       	movw	r10, r12
    2244:	17 ff       	sbrs	r17, 7
    2246:	09 c0       	rjmp	.+18     	; 0x225a <vfprintf+0x5ce>
    2248:	f4 e0       	ldi	r31, 0x04	; 4
    224a:	af 0e       	add	r10, r31
    224c:	b1 1c       	adc	r11, r1
    224e:	f6 01       	movw	r30, r12
    2250:	60 81       	ld	r22, Z
    2252:	71 81       	ldd	r23, Z+1	; 0x01
    2254:	82 81       	ldd	r24, Z+2	; 0x02
    2256:	93 81       	ldd	r25, Z+3	; 0x03
    2258:	08 c0       	rjmp	.+16     	; 0x226a <vfprintf+0x5de>
    225a:	f2 e0       	ldi	r31, 0x02	; 2
    225c:	af 0e       	add	r10, r31
    225e:	b1 1c       	adc	r11, r1
    2260:	f6 01       	movw	r30, r12
    2262:	60 81       	ld	r22, Z
    2264:	71 81       	ldd	r23, Z+1	; 0x01
    2266:	80 e0       	ldi	r24, 0x00	; 0
    2268:	90 e0       	ldi	r25, 0x00	; 0
    226a:	a4 01       	movw	r20, r8
    226c:	08 d3       	rcall	.+1552   	; 0x287e <__ultoa_invert>
    226e:	d8 2e       	mov	r13, r24
    2270:	d8 18       	sub	r13, r8
    2272:	1f 77       	andi	r17, 0x7F	; 127
    2274:	16 ff       	sbrs	r17, 6
    2276:	0b c0       	rjmp	.+22     	; 0x228e <vfprintf+0x602>
    2278:	21 2f       	mov	r18, r17
    227a:	2e 7f       	andi	r18, 0xFE	; 254
    227c:	d7 14       	cp	r13, r7
    227e:	50 f4       	brcc	.+20     	; 0x2294 <vfprintf+0x608>
    2280:	14 ff       	sbrs	r17, 4
    2282:	0a c0       	rjmp	.+20     	; 0x2298 <vfprintf+0x60c>
    2284:	12 fd       	sbrc	r17, 2
    2286:	08 c0       	rjmp	.+16     	; 0x2298 <vfprintf+0x60c>
    2288:	21 2f       	mov	r18, r17
    228a:	2e 7e       	andi	r18, 0xEE	; 238
    228c:	05 c0       	rjmp	.+10     	; 0x2298 <vfprintf+0x60c>
    228e:	0d 2d       	mov	r16, r13
    2290:	21 2f       	mov	r18, r17
    2292:	03 c0       	rjmp	.+6      	; 0x229a <vfprintf+0x60e>
    2294:	0d 2d       	mov	r16, r13
    2296:	01 c0       	rjmp	.+2      	; 0x229a <vfprintf+0x60e>
    2298:	07 2d       	mov	r16, r7
    229a:	24 ff       	sbrs	r18, 4
    229c:	0c c0       	rjmp	.+24     	; 0x22b6 <vfprintf+0x62a>
    229e:	fe 01       	movw	r30, r28
    22a0:	ed 0d       	add	r30, r13
    22a2:	f1 1d       	adc	r31, r1
    22a4:	80 81       	ld	r24, Z
    22a6:	80 33       	cpi	r24, 0x30	; 48
    22a8:	11 f4       	brne	.+4      	; 0x22ae <vfprintf+0x622>
    22aa:	29 7e       	andi	r18, 0xE9	; 233
    22ac:	08 c0       	rjmp	.+16     	; 0x22be <vfprintf+0x632>
    22ae:	22 ff       	sbrs	r18, 2
    22b0:	05 c0       	rjmp	.+10     	; 0x22bc <vfprintf+0x630>
    22b2:	0e 5f       	subi	r16, 0xFE	; 254
    22b4:	04 c0       	rjmp	.+8      	; 0x22be <vfprintf+0x632>
    22b6:	82 2f       	mov	r24, r18
    22b8:	86 78       	andi	r24, 0x86	; 134
    22ba:	09 f0       	breq	.+2      	; 0x22be <vfprintf+0x632>
    22bc:	0f 5f       	subi	r16, 0xFF	; 255
    22be:	23 fd       	sbrc	r18, 3
    22c0:	13 c0       	rjmp	.+38     	; 0x22e8 <vfprintf+0x65c>
    22c2:	20 ff       	sbrs	r18, 0
    22c4:	0e c0       	rjmp	.+28     	; 0x22e2 <vfprintf+0x656>
    22c6:	7d 2c       	mov	r7, r13
    22c8:	06 15       	cp	r16, r6
    22ca:	58 f4       	brcc	.+22     	; 0x22e2 <vfprintf+0x656>
    22cc:	76 0c       	add	r7, r6
    22ce:	70 1a       	sub	r7, r16
    22d0:	06 2d       	mov	r16, r6
    22d2:	07 c0       	rjmp	.+14     	; 0x22e2 <vfprintf+0x656>
    22d4:	b7 01       	movw	r22, r14
    22d6:	80 e2       	ldi	r24, 0x20	; 32
    22d8:	90 e0       	ldi	r25, 0x00	; 0
    22da:	2a 8b       	std	Y+18, r18	; 0x12
    22dc:	76 d2       	rcall	.+1260   	; 0x27ca <fputc>
    22de:	0f 5f       	subi	r16, 0xFF	; 255
    22e0:	2a 89       	ldd	r18, Y+18	; 0x12
    22e2:	06 15       	cp	r16, r6
    22e4:	b8 f3       	brcs	.-18     	; 0x22d4 <vfprintf+0x648>
    22e6:	04 c0       	rjmp	.+8      	; 0x22f0 <vfprintf+0x664>
    22e8:	06 15       	cp	r16, r6
    22ea:	10 f4       	brcc	.+4      	; 0x22f0 <vfprintf+0x664>
    22ec:	60 1a       	sub	r6, r16
    22ee:	01 c0       	rjmp	.+2      	; 0x22f2 <vfprintf+0x666>
    22f0:	61 2c       	mov	r6, r1
    22f2:	24 ff       	sbrs	r18, 4
    22f4:	11 c0       	rjmp	.+34     	; 0x2318 <vfprintf+0x68c>
    22f6:	b7 01       	movw	r22, r14
    22f8:	80 e3       	ldi	r24, 0x30	; 48
    22fa:	90 e0       	ldi	r25, 0x00	; 0
    22fc:	2a 8b       	std	Y+18, r18	; 0x12
    22fe:	65 d2       	rcall	.+1226   	; 0x27ca <fputc>
    2300:	2a 89       	ldd	r18, Y+18	; 0x12
    2302:	22 ff       	sbrs	r18, 2
    2304:	1c c0       	rjmp	.+56     	; 0x233e <vfprintf+0x6b2>
    2306:	21 ff       	sbrs	r18, 1
    2308:	03 c0       	rjmp	.+6      	; 0x2310 <vfprintf+0x684>
    230a:	88 e5       	ldi	r24, 0x58	; 88
    230c:	90 e0       	ldi	r25, 0x00	; 0
    230e:	02 c0       	rjmp	.+4      	; 0x2314 <vfprintf+0x688>
    2310:	88 e7       	ldi	r24, 0x78	; 120
    2312:	90 e0       	ldi	r25, 0x00	; 0
    2314:	b7 01       	movw	r22, r14
    2316:	0c c0       	rjmp	.+24     	; 0x2330 <vfprintf+0x6a4>
    2318:	82 2f       	mov	r24, r18
    231a:	86 78       	andi	r24, 0x86	; 134
    231c:	81 f0       	breq	.+32     	; 0x233e <vfprintf+0x6b2>
    231e:	21 fd       	sbrc	r18, 1
    2320:	02 c0       	rjmp	.+4      	; 0x2326 <vfprintf+0x69a>
    2322:	80 e2       	ldi	r24, 0x20	; 32
    2324:	01 c0       	rjmp	.+2      	; 0x2328 <vfprintf+0x69c>
    2326:	8b e2       	ldi	r24, 0x2B	; 43
    2328:	27 fd       	sbrc	r18, 7
    232a:	8d e2       	ldi	r24, 0x2D	; 45
    232c:	b7 01       	movw	r22, r14
    232e:	90 e0       	ldi	r25, 0x00	; 0
    2330:	4c d2       	rcall	.+1176   	; 0x27ca <fputc>
    2332:	05 c0       	rjmp	.+10     	; 0x233e <vfprintf+0x6b2>
    2334:	b7 01       	movw	r22, r14
    2336:	80 e3       	ldi	r24, 0x30	; 48
    2338:	90 e0       	ldi	r25, 0x00	; 0
    233a:	47 d2       	rcall	.+1166   	; 0x27ca <fputc>
    233c:	7a 94       	dec	r7
    233e:	d7 14       	cp	r13, r7
    2340:	c8 f3       	brcs	.-14     	; 0x2334 <vfprintf+0x6a8>
    2342:	da 94       	dec	r13
    2344:	f4 01       	movw	r30, r8
    2346:	ed 0d       	add	r30, r13
    2348:	f1 1d       	adc	r31, r1
    234a:	b7 01       	movw	r22, r14
    234c:	80 81       	ld	r24, Z
    234e:	90 e0       	ldi	r25, 0x00	; 0
    2350:	3c d2       	rcall	.+1144   	; 0x27ca <fputc>
    2352:	d1 10       	cpse	r13, r1
    2354:	f6 cf       	rjmp	.-20     	; 0x2342 <vfprintf+0x6b6>
    2356:	05 c0       	rjmp	.+10     	; 0x2362 <vfprintf+0x6d6>
    2358:	b7 01       	movw	r22, r14
    235a:	80 e2       	ldi	r24, 0x20	; 32
    235c:	90 e0       	ldi	r25, 0x00	; 0
    235e:	35 d2       	rcall	.+1130   	; 0x27ca <fputc>
    2360:	6a 94       	dec	r6
    2362:	61 10       	cpse	r6, r1
    2364:	f9 cf       	rjmp	.-14     	; 0x2358 <vfprintf+0x6cc>
    2366:	b6 cc       	rjmp	.-1684   	; 0x1cd4 <vfprintf+0x48>
    2368:	f7 01       	movw	r30, r14
    236a:	26 81       	ldd	r18, Z+6	; 0x06
    236c:	37 81       	ldd	r19, Z+7	; 0x07
    236e:	02 c0       	rjmp	.+4      	; 0x2374 <vfprintf+0x6e8>
    2370:	2f ef       	ldi	r18, 0xFF	; 255
    2372:	3f ef       	ldi	r19, 0xFF	; 255
    2374:	c9 01       	movw	r24, r18
    2376:	62 96       	adiw	r28, 0x12	; 18
    2378:	0f b6       	in	r0, 0x3f	; 63
    237a:	f8 94       	cli
    237c:	de bf       	out	0x3e, r29	; 62
    237e:	0f be       	out	0x3f, r0	; 63
    2380:	cd bf       	out	0x3d, r28	; 61
    2382:	df 91       	pop	r29
    2384:	cf 91       	pop	r28
    2386:	1f 91       	pop	r17
    2388:	0f 91       	pop	r16
    238a:	ff 90       	pop	r15
    238c:	ef 90       	pop	r14
    238e:	df 90       	pop	r13
    2390:	cf 90       	pop	r12
    2392:	bf 90       	pop	r11
    2394:	af 90       	pop	r10
    2396:	9f 90       	pop	r9
    2398:	8f 90       	pop	r8
    239a:	7f 90       	pop	r7
    239c:	6f 90       	pop	r6
    239e:	5f 90       	pop	r5
    23a0:	4f 90       	pop	r4
    23a2:	3f 90       	pop	r3
    23a4:	2f 90       	pop	r2
    23a6:	08 95       	ret

000023a8 <__cmpsf2>:
    23a8:	2f d0       	rcall	.+94     	; 0x2408 <__fp_cmp>
    23aa:	08 f4       	brcc	.+2      	; 0x23ae <__cmpsf2+0x6>
    23ac:	81 e0       	ldi	r24, 0x01	; 1
    23ae:	08 95       	ret

000023b0 <__fixunssfsi>:
    23b0:	57 d0       	rcall	.+174    	; 0x2460 <__fp_splitA>
    23b2:	88 f0       	brcs	.+34     	; 0x23d6 <__fixunssfsi+0x26>
    23b4:	9f 57       	subi	r25, 0x7F	; 127
    23b6:	90 f0       	brcs	.+36     	; 0x23dc <__fixunssfsi+0x2c>
    23b8:	b9 2f       	mov	r27, r25
    23ba:	99 27       	eor	r25, r25
    23bc:	b7 51       	subi	r27, 0x17	; 23
    23be:	a0 f0       	brcs	.+40     	; 0x23e8 <__fixunssfsi+0x38>
    23c0:	d1 f0       	breq	.+52     	; 0x23f6 <__fixunssfsi+0x46>
    23c2:	66 0f       	add	r22, r22
    23c4:	77 1f       	adc	r23, r23
    23c6:	88 1f       	adc	r24, r24
    23c8:	99 1f       	adc	r25, r25
    23ca:	1a f0       	brmi	.+6      	; 0x23d2 <__fixunssfsi+0x22>
    23cc:	ba 95       	dec	r27
    23ce:	c9 f7       	brne	.-14     	; 0x23c2 <__fixunssfsi+0x12>
    23d0:	12 c0       	rjmp	.+36     	; 0x23f6 <__fixunssfsi+0x46>
    23d2:	b1 30       	cpi	r27, 0x01	; 1
    23d4:	81 f0       	breq	.+32     	; 0x23f6 <__fixunssfsi+0x46>
    23d6:	5e d0       	rcall	.+188    	; 0x2494 <__fp_zero>
    23d8:	b1 e0       	ldi	r27, 0x01	; 1
    23da:	08 95       	ret
    23dc:	5b c0       	rjmp	.+182    	; 0x2494 <__fp_zero>
    23de:	67 2f       	mov	r22, r23
    23e0:	78 2f       	mov	r23, r24
    23e2:	88 27       	eor	r24, r24
    23e4:	b8 5f       	subi	r27, 0xF8	; 248
    23e6:	39 f0       	breq	.+14     	; 0x23f6 <__fixunssfsi+0x46>
    23e8:	b9 3f       	cpi	r27, 0xF9	; 249
    23ea:	cc f3       	brlt	.-14     	; 0x23de <__fixunssfsi+0x2e>
    23ec:	86 95       	lsr	r24
    23ee:	77 95       	ror	r23
    23f0:	67 95       	ror	r22
    23f2:	b3 95       	inc	r27
    23f4:	d9 f7       	brne	.-10     	; 0x23ec <__fixunssfsi+0x3c>
    23f6:	3e f4       	brtc	.+14     	; 0x2406 <__fixunssfsi+0x56>
    23f8:	90 95       	com	r25
    23fa:	80 95       	com	r24
    23fc:	70 95       	com	r23
    23fe:	61 95       	neg	r22
    2400:	7f 4f       	sbci	r23, 0xFF	; 255
    2402:	8f 4f       	sbci	r24, 0xFF	; 255
    2404:	9f 4f       	sbci	r25, 0xFF	; 255
    2406:	08 95       	ret

00002408 <__fp_cmp>:
    2408:	99 0f       	add	r25, r25
    240a:	00 08       	sbc	r0, r0
    240c:	55 0f       	add	r21, r21
    240e:	aa 0b       	sbc	r26, r26
    2410:	e0 e8       	ldi	r30, 0x80	; 128
    2412:	fe ef       	ldi	r31, 0xFE	; 254
    2414:	16 16       	cp	r1, r22
    2416:	17 06       	cpc	r1, r23
    2418:	e8 07       	cpc	r30, r24
    241a:	f9 07       	cpc	r31, r25
    241c:	c0 f0       	brcs	.+48     	; 0x244e <__fp_cmp+0x46>
    241e:	12 16       	cp	r1, r18
    2420:	13 06       	cpc	r1, r19
    2422:	e4 07       	cpc	r30, r20
    2424:	f5 07       	cpc	r31, r21
    2426:	98 f0       	brcs	.+38     	; 0x244e <__fp_cmp+0x46>
    2428:	62 1b       	sub	r22, r18
    242a:	73 0b       	sbc	r23, r19
    242c:	84 0b       	sbc	r24, r20
    242e:	95 0b       	sbc	r25, r21
    2430:	39 f4       	brne	.+14     	; 0x2440 <__fp_cmp+0x38>
    2432:	0a 26       	eor	r0, r26
    2434:	61 f0       	breq	.+24     	; 0x244e <__fp_cmp+0x46>
    2436:	23 2b       	or	r18, r19
    2438:	24 2b       	or	r18, r20
    243a:	25 2b       	or	r18, r21
    243c:	21 f4       	brne	.+8      	; 0x2446 <__fp_cmp+0x3e>
    243e:	08 95       	ret
    2440:	0a 26       	eor	r0, r26
    2442:	09 f4       	brne	.+2      	; 0x2446 <__fp_cmp+0x3e>
    2444:	a1 40       	sbci	r26, 0x01	; 1
    2446:	a6 95       	lsr	r26
    2448:	8f ef       	ldi	r24, 0xFF	; 255
    244a:	81 1d       	adc	r24, r1
    244c:	81 1d       	adc	r24, r1
    244e:	08 95       	ret

00002450 <__fp_split3>:
    2450:	57 fd       	sbrc	r21, 7
    2452:	90 58       	subi	r25, 0x80	; 128
    2454:	44 0f       	add	r20, r20
    2456:	55 1f       	adc	r21, r21
    2458:	59 f0       	breq	.+22     	; 0x2470 <__fp_splitA+0x10>
    245a:	5f 3f       	cpi	r21, 0xFF	; 255
    245c:	71 f0       	breq	.+28     	; 0x247a <__fp_splitA+0x1a>
    245e:	47 95       	ror	r20

00002460 <__fp_splitA>:
    2460:	88 0f       	add	r24, r24
    2462:	97 fb       	bst	r25, 7
    2464:	99 1f       	adc	r25, r25
    2466:	61 f0       	breq	.+24     	; 0x2480 <__fp_splitA+0x20>
    2468:	9f 3f       	cpi	r25, 0xFF	; 255
    246a:	79 f0       	breq	.+30     	; 0x248a <__fp_splitA+0x2a>
    246c:	87 95       	ror	r24
    246e:	08 95       	ret
    2470:	12 16       	cp	r1, r18
    2472:	13 06       	cpc	r1, r19
    2474:	14 06       	cpc	r1, r20
    2476:	55 1f       	adc	r21, r21
    2478:	f2 cf       	rjmp	.-28     	; 0x245e <__fp_split3+0xe>
    247a:	46 95       	lsr	r20
    247c:	f1 df       	rcall	.-30     	; 0x2460 <__fp_splitA>
    247e:	08 c0       	rjmp	.+16     	; 0x2490 <__fp_splitA+0x30>
    2480:	16 16       	cp	r1, r22
    2482:	17 06       	cpc	r1, r23
    2484:	18 06       	cpc	r1, r24
    2486:	99 1f       	adc	r25, r25
    2488:	f1 cf       	rjmp	.-30     	; 0x246c <__fp_splitA+0xc>
    248a:	86 95       	lsr	r24
    248c:	71 05       	cpc	r23, r1
    248e:	61 05       	cpc	r22, r1
    2490:	08 94       	sec
    2492:	08 95       	ret

00002494 <__fp_zero>:
    2494:	e8 94       	clt

00002496 <__fp_szero>:
    2496:	bb 27       	eor	r27, r27
    2498:	66 27       	eor	r22, r22
    249a:	77 27       	eor	r23, r23
    249c:	cb 01       	movw	r24, r22
    249e:	97 f9       	bld	r25, 7
    24a0:	08 95       	ret

000024a2 <__gesf2>:
    24a2:	b2 df       	rcall	.-156    	; 0x2408 <__fp_cmp>
    24a4:	08 f4       	brcc	.+2      	; 0x24a8 <__gesf2+0x6>
    24a6:	8f ef       	ldi	r24, 0xFF	; 255
    24a8:	08 95       	ret

000024aa <__mulsf3>:
    24aa:	0b d0       	rcall	.+22     	; 0x24c2 <__mulsf3x>
    24ac:	78 c0       	rjmp	.+240    	; 0x259e <__fp_round>
    24ae:	69 d0       	rcall	.+210    	; 0x2582 <__fp_pscA>
    24b0:	28 f0       	brcs	.+10     	; 0x24bc <__mulsf3+0x12>
    24b2:	6e d0       	rcall	.+220    	; 0x2590 <__fp_pscB>
    24b4:	18 f0       	brcs	.+6      	; 0x24bc <__mulsf3+0x12>
    24b6:	95 23       	and	r25, r21
    24b8:	09 f0       	breq	.+2      	; 0x24bc <__mulsf3+0x12>
    24ba:	5a c0       	rjmp	.+180    	; 0x2570 <__fp_inf>
    24bc:	5f c0       	rjmp	.+190    	; 0x257c <__fp_nan>
    24be:	11 24       	eor	r1, r1
    24c0:	ea cf       	rjmp	.-44     	; 0x2496 <__fp_szero>

000024c2 <__mulsf3x>:
    24c2:	c6 df       	rcall	.-116    	; 0x2450 <__fp_split3>
    24c4:	a0 f3       	brcs	.-24     	; 0x24ae <__mulsf3+0x4>

000024c6 <__mulsf3_pse>:
    24c6:	95 9f       	mul	r25, r21
    24c8:	d1 f3       	breq	.-12     	; 0x24be <__mulsf3+0x14>
    24ca:	95 0f       	add	r25, r21
    24cc:	50 e0       	ldi	r21, 0x00	; 0
    24ce:	55 1f       	adc	r21, r21
    24d0:	62 9f       	mul	r22, r18
    24d2:	f0 01       	movw	r30, r0
    24d4:	72 9f       	mul	r23, r18
    24d6:	bb 27       	eor	r27, r27
    24d8:	f0 0d       	add	r31, r0
    24da:	b1 1d       	adc	r27, r1
    24dc:	63 9f       	mul	r22, r19
    24de:	aa 27       	eor	r26, r26
    24e0:	f0 0d       	add	r31, r0
    24e2:	b1 1d       	adc	r27, r1
    24e4:	aa 1f       	adc	r26, r26
    24e6:	64 9f       	mul	r22, r20
    24e8:	66 27       	eor	r22, r22
    24ea:	b0 0d       	add	r27, r0
    24ec:	a1 1d       	adc	r26, r1
    24ee:	66 1f       	adc	r22, r22
    24f0:	82 9f       	mul	r24, r18
    24f2:	22 27       	eor	r18, r18
    24f4:	b0 0d       	add	r27, r0
    24f6:	a1 1d       	adc	r26, r1
    24f8:	62 1f       	adc	r22, r18
    24fa:	73 9f       	mul	r23, r19
    24fc:	b0 0d       	add	r27, r0
    24fe:	a1 1d       	adc	r26, r1
    2500:	62 1f       	adc	r22, r18
    2502:	83 9f       	mul	r24, r19
    2504:	a0 0d       	add	r26, r0
    2506:	61 1d       	adc	r22, r1
    2508:	22 1f       	adc	r18, r18
    250a:	74 9f       	mul	r23, r20
    250c:	33 27       	eor	r19, r19
    250e:	a0 0d       	add	r26, r0
    2510:	61 1d       	adc	r22, r1
    2512:	23 1f       	adc	r18, r19
    2514:	84 9f       	mul	r24, r20
    2516:	60 0d       	add	r22, r0
    2518:	21 1d       	adc	r18, r1
    251a:	82 2f       	mov	r24, r18
    251c:	76 2f       	mov	r23, r22
    251e:	6a 2f       	mov	r22, r26
    2520:	11 24       	eor	r1, r1
    2522:	9f 57       	subi	r25, 0x7F	; 127
    2524:	50 40       	sbci	r21, 0x00	; 0
    2526:	8a f0       	brmi	.+34     	; 0x254a <__mulsf3_pse+0x84>
    2528:	e1 f0       	breq	.+56     	; 0x2562 <__mulsf3_pse+0x9c>
    252a:	88 23       	and	r24, r24
    252c:	4a f0       	brmi	.+18     	; 0x2540 <__mulsf3_pse+0x7a>
    252e:	ee 0f       	add	r30, r30
    2530:	ff 1f       	adc	r31, r31
    2532:	bb 1f       	adc	r27, r27
    2534:	66 1f       	adc	r22, r22
    2536:	77 1f       	adc	r23, r23
    2538:	88 1f       	adc	r24, r24
    253a:	91 50       	subi	r25, 0x01	; 1
    253c:	50 40       	sbci	r21, 0x00	; 0
    253e:	a9 f7       	brne	.-22     	; 0x252a <__mulsf3_pse+0x64>
    2540:	9e 3f       	cpi	r25, 0xFE	; 254
    2542:	51 05       	cpc	r21, r1
    2544:	70 f0       	brcs	.+28     	; 0x2562 <__mulsf3_pse+0x9c>
    2546:	14 c0       	rjmp	.+40     	; 0x2570 <__fp_inf>
    2548:	a6 cf       	rjmp	.-180    	; 0x2496 <__fp_szero>
    254a:	5f 3f       	cpi	r21, 0xFF	; 255
    254c:	ec f3       	brlt	.-6      	; 0x2548 <__mulsf3_pse+0x82>
    254e:	98 3e       	cpi	r25, 0xE8	; 232
    2550:	dc f3       	brlt	.-10     	; 0x2548 <__mulsf3_pse+0x82>
    2552:	86 95       	lsr	r24
    2554:	77 95       	ror	r23
    2556:	67 95       	ror	r22
    2558:	b7 95       	ror	r27
    255a:	f7 95       	ror	r31
    255c:	e7 95       	ror	r30
    255e:	9f 5f       	subi	r25, 0xFF	; 255
    2560:	c1 f7       	brne	.-16     	; 0x2552 <__mulsf3_pse+0x8c>
    2562:	fe 2b       	or	r31, r30
    2564:	88 0f       	add	r24, r24
    2566:	91 1d       	adc	r25, r1
    2568:	96 95       	lsr	r25
    256a:	87 95       	ror	r24
    256c:	97 f9       	bld	r25, 7
    256e:	08 95       	ret

00002570 <__fp_inf>:
    2570:	97 f9       	bld	r25, 7
    2572:	9f 67       	ori	r25, 0x7F	; 127
    2574:	80 e8       	ldi	r24, 0x80	; 128
    2576:	70 e0       	ldi	r23, 0x00	; 0
    2578:	60 e0       	ldi	r22, 0x00	; 0
    257a:	08 95       	ret

0000257c <__fp_nan>:
    257c:	9f ef       	ldi	r25, 0xFF	; 255
    257e:	80 ec       	ldi	r24, 0xC0	; 192
    2580:	08 95       	ret

00002582 <__fp_pscA>:
    2582:	00 24       	eor	r0, r0
    2584:	0a 94       	dec	r0
    2586:	16 16       	cp	r1, r22
    2588:	17 06       	cpc	r1, r23
    258a:	18 06       	cpc	r1, r24
    258c:	09 06       	cpc	r0, r25
    258e:	08 95       	ret

00002590 <__fp_pscB>:
    2590:	00 24       	eor	r0, r0
    2592:	0a 94       	dec	r0
    2594:	12 16       	cp	r1, r18
    2596:	13 06       	cpc	r1, r19
    2598:	14 06       	cpc	r1, r20
    259a:	05 06       	cpc	r0, r21
    259c:	08 95       	ret

0000259e <__fp_round>:
    259e:	09 2e       	mov	r0, r25
    25a0:	03 94       	inc	r0
    25a2:	00 0c       	add	r0, r0
    25a4:	11 f4       	brne	.+4      	; 0x25aa <__fp_round+0xc>
    25a6:	88 23       	and	r24, r24
    25a8:	52 f0       	brmi	.+20     	; 0x25be <__fp_round+0x20>
    25aa:	bb 0f       	add	r27, r27
    25ac:	40 f4       	brcc	.+16     	; 0x25be <__fp_round+0x20>
    25ae:	bf 2b       	or	r27, r31
    25b0:	11 f4       	brne	.+4      	; 0x25b6 <__fp_round+0x18>
    25b2:	60 ff       	sbrs	r22, 0
    25b4:	04 c0       	rjmp	.+8      	; 0x25be <__fp_round+0x20>
    25b6:	6f 5f       	subi	r22, 0xFF	; 255
    25b8:	7f 4f       	sbci	r23, 0xFF	; 255
    25ba:	8f 4f       	sbci	r24, 0xFF	; 255
    25bc:	9f 4f       	sbci	r25, 0xFF	; 255
    25be:	08 95       	ret

000025c0 <__ftoa_engine>:
    25c0:	28 30       	cpi	r18, 0x08	; 8
    25c2:	08 f0       	brcs	.+2      	; 0x25c6 <__ftoa_engine+0x6>
    25c4:	27 e0       	ldi	r18, 0x07	; 7
    25c6:	33 27       	eor	r19, r19
    25c8:	da 01       	movw	r26, r20
    25ca:	99 0f       	add	r25, r25
    25cc:	31 1d       	adc	r19, r1
    25ce:	87 fd       	sbrc	r24, 7
    25d0:	91 60       	ori	r25, 0x01	; 1
    25d2:	00 96       	adiw	r24, 0x00	; 0
    25d4:	61 05       	cpc	r22, r1
    25d6:	71 05       	cpc	r23, r1
    25d8:	39 f4       	brne	.+14     	; 0x25e8 <__ftoa_engine+0x28>
    25da:	32 60       	ori	r19, 0x02	; 2
    25dc:	2e 5f       	subi	r18, 0xFE	; 254
    25de:	3d 93       	st	X+, r19
    25e0:	30 e3       	ldi	r19, 0x30	; 48
    25e2:	2a 95       	dec	r18
    25e4:	e1 f7       	brne	.-8      	; 0x25de <__ftoa_engine+0x1e>
    25e6:	08 95       	ret
    25e8:	9f 3f       	cpi	r25, 0xFF	; 255
    25ea:	30 f0       	brcs	.+12     	; 0x25f8 <__ftoa_engine+0x38>
    25ec:	80 38       	cpi	r24, 0x80	; 128
    25ee:	71 05       	cpc	r23, r1
    25f0:	61 05       	cpc	r22, r1
    25f2:	09 f0       	breq	.+2      	; 0x25f6 <__ftoa_engine+0x36>
    25f4:	3c 5f       	subi	r19, 0xFC	; 252
    25f6:	3c 5f       	subi	r19, 0xFC	; 252
    25f8:	3d 93       	st	X+, r19
    25fa:	91 30       	cpi	r25, 0x01	; 1
    25fc:	08 f0       	brcs	.+2      	; 0x2600 <__ftoa_engine+0x40>
    25fe:	80 68       	ori	r24, 0x80	; 128
    2600:	91 1d       	adc	r25, r1
    2602:	df 93       	push	r29
    2604:	cf 93       	push	r28
    2606:	1f 93       	push	r17
    2608:	0f 93       	push	r16
    260a:	ff 92       	push	r15
    260c:	ef 92       	push	r14
    260e:	19 2f       	mov	r17, r25
    2610:	98 7f       	andi	r25, 0xF8	; 248
    2612:	96 95       	lsr	r25
    2614:	e9 2f       	mov	r30, r25
    2616:	96 95       	lsr	r25
    2618:	96 95       	lsr	r25
    261a:	e9 0f       	add	r30, r25
    261c:	ff 27       	eor	r31, r31
    261e:	e7 5f       	subi	r30, 0xF7	; 247
    2620:	fd 4f       	sbci	r31, 0xFD	; 253
    2622:	99 27       	eor	r25, r25
    2624:	33 27       	eor	r19, r19
    2626:	ee 24       	eor	r14, r14
    2628:	ff 24       	eor	r15, r15
    262a:	a7 01       	movw	r20, r14
    262c:	e7 01       	movw	r28, r14
    262e:	05 90       	lpm	r0, Z+
    2630:	08 94       	sec
    2632:	07 94       	ror	r0
    2634:	28 f4       	brcc	.+10     	; 0x2640 <__ftoa_engine+0x80>
    2636:	36 0f       	add	r19, r22
    2638:	e7 1e       	adc	r14, r23
    263a:	f8 1e       	adc	r15, r24
    263c:	49 1f       	adc	r20, r25
    263e:	51 1d       	adc	r21, r1
    2640:	66 0f       	add	r22, r22
    2642:	77 1f       	adc	r23, r23
    2644:	88 1f       	adc	r24, r24
    2646:	99 1f       	adc	r25, r25
    2648:	06 94       	lsr	r0
    264a:	a1 f7       	brne	.-24     	; 0x2634 <__ftoa_engine+0x74>
    264c:	05 90       	lpm	r0, Z+
    264e:	07 94       	ror	r0
    2650:	28 f4       	brcc	.+10     	; 0x265c <__ftoa_engine+0x9c>
    2652:	e7 0e       	add	r14, r23
    2654:	f8 1e       	adc	r15, r24
    2656:	49 1f       	adc	r20, r25
    2658:	56 1f       	adc	r21, r22
    265a:	c1 1d       	adc	r28, r1
    265c:	77 0f       	add	r23, r23
    265e:	88 1f       	adc	r24, r24
    2660:	99 1f       	adc	r25, r25
    2662:	66 1f       	adc	r22, r22
    2664:	06 94       	lsr	r0
    2666:	a1 f7       	brne	.-24     	; 0x2650 <__ftoa_engine+0x90>
    2668:	05 90       	lpm	r0, Z+
    266a:	07 94       	ror	r0
    266c:	28 f4       	brcc	.+10     	; 0x2678 <__ftoa_engine+0xb8>
    266e:	f8 0e       	add	r15, r24
    2670:	49 1f       	adc	r20, r25
    2672:	56 1f       	adc	r21, r22
    2674:	c7 1f       	adc	r28, r23
    2676:	d1 1d       	adc	r29, r1
    2678:	88 0f       	add	r24, r24
    267a:	99 1f       	adc	r25, r25
    267c:	66 1f       	adc	r22, r22
    267e:	77 1f       	adc	r23, r23
    2680:	06 94       	lsr	r0
    2682:	a1 f7       	brne	.-24     	; 0x266c <__ftoa_engine+0xac>
    2684:	05 90       	lpm	r0, Z+
    2686:	07 94       	ror	r0
    2688:	20 f4       	brcc	.+8      	; 0x2692 <__ftoa_engine+0xd2>
    268a:	49 0f       	add	r20, r25
    268c:	56 1f       	adc	r21, r22
    268e:	c7 1f       	adc	r28, r23
    2690:	d8 1f       	adc	r29, r24
    2692:	99 0f       	add	r25, r25
    2694:	66 1f       	adc	r22, r22
    2696:	77 1f       	adc	r23, r23
    2698:	88 1f       	adc	r24, r24
    269a:	06 94       	lsr	r0
    269c:	a9 f7       	brne	.-22     	; 0x2688 <__ftoa_engine+0xc8>
    269e:	84 91       	lpm	r24, Z
    26a0:	10 95       	com	r17
    26a2:	17 70       	andi	r17, 0x07	; 7
    26a4:	41 f0       	breq	.+16     	; 0x26b6 <__ftoa_engine+0xf6>
    26a6:	d6 95       	lsr	r29
    26a8:	c7 95       	ror	r28
    26aa:	57 95       	ror	r21
    26ac:	47 95       	ror	r20
    26ae:	f7 94       	ror	r15
    26b0:	e7 94       	ror	r14
    26b2:	1a 95       	dec	r17
    26b4:	c1 f7       	brne	.-16     	; 0x26a6 <__ftoa_engine+0xe6>
    26b6:	ef ea       	ldi	r30, 0xAF	; 175
    26b8:	f1 e0       	ldi	r31, 0x01	; 1
    26ba:	68 94       	set
    26bc:	15 90       	lpm	r1, Z+
    26be:	15 91       	lpm	r17, Z+
    26c0:	35 91       	lpm	r19, Z+
    26c2:	65 91       	lpm	r22, Z+
    26c4:	95 91       	lpm	r25, Z+
    26c6:	05 90       	lpm	r0, Z+
    26c8:	7f e2       	ldi	r23, 0x2F	; 47
    26ca:	73 95       	inc	r23
    26cc:	e1 18       	sub	r14, r1
    26ce:	f1 0a       	sbc	r15, r17
    26d0:	43 0b       	sbc	r20, r19
    26d2:	56 0b       	sbc	r21, r22
    26d4:	c9 0b       	sbc	r28, r25
    26d6:	d0 09       	sbc	r29, r0
    26d8:	c0 f7       	brcc	.-16     	; 0x26ca <__ftoa_engine+0x10a>
    26da:	e1 0c       	add	r14, r1
    26dc:	f1 1e       	adc	r15, r17
    26de:	43 1f       	adc	r20, r19
    26e0:	56 1f       	adc	r21, r22
    26e2:	c9 1f       	adc	r28, r25
    26e4:	d0 1d       	adc	r29, r0
    26e6:	7e f4       	brtc	.+30     	; 0x2706 <__ftoa_engine+0x146>
    26e8:	70 33       	cpi	r23, 0x30	; 48
    26ea:	11 f4       	brne	.+4      	; 0x26f0 <__ftoa_engine+0x130>
    26ec:	8a 95       	dec	r24
    26ee:	e6 cf       	rjmp	.-52     	; 0x26bc <__ftoa_engine+0xfc>
    26f0:	e8 94       	clt
    26f2:	01 50       	subi	r16, 0x01	; 1
    26f4:	30 f0       	brcs	.+12     	; 0x2702 <__ftoa_engine+0x142>
    26f6:	08 0f       	add	r16, r24
    26f8:	0a f4       	brpl	.+2      	; 0x26fc <__ftoa_engine+0x13c>
    26fa:	00 27       	eor	r16, r16
    26fc:	02 17       	cp	r16, r18
    26fe:	08 f4       	brcc	.+2      	; 0x2702 <__ftoa_engine+0x142>
    2700:	20 2f       	mov	r18, r16
    2702:	23 95       	inc	r18
    2704:	02 2f       	mov	r16, r18
    2706:	7a 33       	cpi	r23, 0x3A	; 58
    2708:	28 f0       	brcs	.+10     	; 0x2714 <__ftoa_engine+0x154>
    270a:	79 e3       	ldi	r23, 0x39	; 57
    270c:	7d 93       	st	X+, r23
    270e:	2a 95       	dec	r18
    2710:	e9 f7       	brne	.-6      	; 0x270c <__ftoa_engine+0x14c>
    2712:	10 c0       	rjmp	.+32     	; 0x2734 <__ftoa_engine+0x174>
    2714:	7d 93       	st	X+, r23
    2716:	2a 95       	dec	r18
    2718:	89 f6       	brne	.-94     	; 0x26bc <__ftoa_engine+0xfc>
    271a:	06 94       	lsr	r0
    271c:	97 95       	ror	r25
    271e:	67 95       	ror	r22
    2720:	37 95       	ror	r19
    2722:	17 95       	ror	r17
    2724:	17 94       	ror	r1
    2726:	e1 18       	sub	r14, r1
    2728:	f1 0a       	sbc	r15, r17
    272a:	43 0b       	sbc	r20, r19
    272c:	56 0b       	sbc	r21, r22
    272e:	c9 0b       	sbc	r28, r25
    2730:	d0 09       	sbc	r29, r0
    2732:	98 f0       	brcs	.+38     	; 0x275a <__ftoa_engine+0x19a>
    2734:	23 95       	inc	r18
    2736:	7e 91       	ld	r23, -X
    2738:	73 95       	inc	r23
    273a:	7a 33       	cpi	r23, 0x3A	; 58
    273c:	08 f0       	brcs	.+2      	; 0x2740 <__ftoa_engine+0x180>
    273e:	70 e3       	ldi	r23, 0x30	; 48
    2740:	7c 93       	st	X, r23
    2742:	20 13       	cpse	r18, r16
    2744:	b8 f7       	brcc	.-18     	; 0x2734 <__ftoa_engine+0x174>
    2746:	7e 91       	ld	r23, -X
    2748:	70 61       	ori	r23, 0x10	; 16
    274a:	7d 93       	st	X+, r23
    274c:	30 f0       	brcs	.+12     	; 0x275a <__ftoa_engine+0x19a>
    274e:	83 95       	inc	r24
    2750:	71 e3       	ldi	r23, 0x31	; 49
    2752:	7d 93       	st	X+, r23
    2754:	70 e3       	ldi	r23, 0x30	; 48
    2756:	2a 95       	dec	r18
    2758:	e1 f7       	brne	.-8      	; 0x2752 <__ftoa_engine+0x192>
    275a:	11 24       	eor	r1, r1
    275c:	ef 90       	pop	r14
    275e:	ff 90       	pop	r15
    2760:	0f 91       	pop	r16
    2762:	1f 91       	pop	r17
    2764:	cf 91       	pop	r28
    2766:	df 91       	pop	r29
    2768:	99 27       	eor	r25, r25
    276a:	87 fd       	sbrc	r24, 7
    276c:	90 95       	com	r25
    276e:	08 95       	ret

00002770 <strnlen_P>:
    2770:	fc 01       	movw	r30, r24
    2772:	05 90       	lpm	r0, Z+
    2774:	61 50       	subi	r22, 0x01	; 1
    2776:	70 40       	sbci	r23, 0x00	; 0
    2778:	01 10       	cpse	r0, r1
    277a:	d8 f7       	brcc	.-10     	; 0x2772 <strnlen_P+0x2>
    277c:	80 95       	com	r24
    277e:	90 95       	com	r25
    2780:	8e 0f       	add	r24, r30
    2782:	9f 1f       	adc	r25, r31
    2784:	08 95       	ret

00002786 <strlen>:
    2786:	fc 01       	movw	r30, r24
    2788:	01 90       	ld	r0, Z+
    278a:	00 20       	and	r0, r0
    278c:	e9 f7       	brne	.-6      	; 0x2788 <strlen+0x2>
    278e:	80 95       	com	r24
    2790:	90 95       	com	r25
    2792:	8e 0f       	add	r24, r30
    2794:	9f 1f       	adc	r25, r31
    2796:	08 95       	ret

00002798 <strncmp>:
    2798:	fb 01       	movw	r30, r22
    279a:	dc 01       	movw	r26, r24
    279c:	41 50       	subi	r20, 0x01	; 1
    279e:	50 40       	sbci	r21, 0x00	; 0
    27a0:	30 f0       	brcs	.+12     	; 0x27ae <strncmp+0x16>
    27a2:	8d 91       	ld	r24, X+
    27a4:	01 90       	ld	r0, Z+
    27a6:	80 19       	sub	r24, r0
    27a8:	19 f4       	brne	.+6      	; 0x27b0 <strncmp+0x18>
    27aa:	00 20       	and	r0, r0
    27ac:	b9 f7       	brne	.-18     	; 0x279c <strncmp+0x4>
    27ae:	88 1b       	sub	r24, r24
    27b0:	99 0b       	sbc	r25, r25
    27b2:	08 95       	ret

000027b4 <strnlen>:
    27b4:	fc 01       	movw	r30, r24
    27b6:	61 50       	subi	r22, 0x01	; 1
    27b8:	70 40       	sbci	r23, 0x00	; 0
    27ba:	01 90       	ld	r0, Z+
    27bc:	01 10       	cpse	r0, r1
    27be:	d8 f7       	brcc	.-10     	; 0x27b6 <strnlen+0x2>
    27c0:	80 95       	com	r24
    27c2:	90 95       	com	r25
    27c4:	8e 0f       	add	r24, r30
    27c6:	9f 1f       	adc	r25, r31
    27c8:	08 95       	ret

000027ca <fputc>:
    27ca:	0f 93       	push	r16
    27cc:	1f 93       	push	r17
    27ce:	cf 93       	push	r28
    27d0:	df 93       	push	r29
    27d2:	8c 01       	movw	r16, r24
    27d4:	eb 01       	movw	r28, r22
    27d6:	8b 81       	ldd	r24, Y+3	; 0x03
    27d8:	81 fd       	sbrc	r24, 1
    27da:	03 c0       	rjmp	.+6      	; 0x27e2 <fputc+0x18>
    27dc:	0f ef       	ldi	r16, 0xFF	; 255
    27de:	1f ef       	ldi	r17, 0xFF	; 255
    27e0:	1a c0       	rjmp	.+52     	; 0x2816 <fputc+0x4c>
    27e2:	82 ff       	sbrs	r24, 2
    27e4:	0d c0       	rjmp	.+26     	; 0x2800 <fputc+0x36>
    27e6:	2e 81       	ldd	r18, Y+6	; 0x06
    27e8:	3f 81       	ldd	r19, Y+7	; 0x07
    27ea:	8c 81       	ldd	r24, Y+4	; 0x04
    27ec:	9d 81       	ldd	r25, Y+5	; 0x05
    27ee:	28 17       	cp	r18, r24
    27f0:	39 07       	cpc	r19, r25
    27f2:	64 f4       	brge	.+24     	; 0x280c <fputc+0x42>
    27f4:	e8 81       	ld	r30, Y
    27f6:	f9 81       	ldd	r31, Y+1	; 0x01
    27f8:	01 93       	st	Z+, r16
    27fa:	f9 83       	std	Y+1, r31	; 0x01
    27fc:	e8 83       	st	Y, r30
    27fe:	06 c0       	rjmp	.+12     	; 0x280c <fputc+0x42>
    2800:	e8 85       	ldd	r30, Y+8	; 0x08
    2802:	f9 85       	ldd	r31, Y+9	; 0x09
    2804:	80 2f       	mov	r24, r16
    2806:	09 95       	icall
    2808:	89 2b       	or	r24, r25
    280a:	41 f7       	brne	.-48     	; 0x27dc <fputc+0x12>
    280c:	8e 81       	ldd	r24, Y+6	; 0x06
    280e:	9f 81       	ldd	r25, Y+7	; 0x07
    2810:	01 96       	adiw	r24, 0x01	; 1
    2812:	9f 83       	std	Y+7, r25	; 0x07
    2814:	8e 83       	std	Y+6, r24	; 0x06
    2816:	c8 01       	movw	r24, r16
    2818:	df 91       	pop	r29
    281a:	cf 91       	pop	r28
    281c:	1f 91       	pop	r17
    281e:	0f 91       	pop	r16
    2820:	08 95       	ret

00002822 <sprintf>:
    2822:	0f 93       	push	r16
    2824:	1f 93       	push	r17
    2826:	cf 93       	push	r28
    2828:	df 93       	push	r29
    282a:	cd b7       	in	r28, 0x3d	; 61
    282c:	de b7       	in	r29, 0x3e	; 62
    282e:	2e 97       	sbiw	r28, 0x0e	; 14
    2830:	0f b6       	in	r0, 0x3f	; 63
    2832:	f8 94       	cli
    2834:	de bf       	out	0x3e, r29	; 62
    2836:	0f be       	out	0x3f, r0	; 63
    2838:	cd bf       	out	0x3d, r28	; 61
    283a:	0d 89       	ldd	r16, Y+21	; 0x15
    283c:	1e 89       	ldd	r17, Y+22	; 0x16
    283e:	86 e0       	ldi	r24, 0x06	; 6
    2840:	8c 83       	std	Y+4, r24	; 0x04
    2842:	1a 83       	std	Y+2, r17	; 0x02
    2844:	09 83       	std	Y+1, r16	; 0x01
    2846:	8f ef       	ldi	r24, 0xFF	; 255
    2848:	9f e7       	ldi	r25, 0x7F	; 127
    284a:	9e 83       	std	Y+6, r25	; 0x06
    284c:	8d 83       	std	Y+5, r24	; 0x05
    284e:	ce 01       	movw	r24, r28
    2850:	49 96       	adiw	r24, 0x19	; 25
    2852:	ac 01       	movw	r20, r24
    2854:	6f 89       	ldd	r22, Y+23	; 0x17
    2856:	78 8d       	ldd	r23, Y+24	; 0x18
    2858:	ce 01       	movw	r24, r28
    285a:	01 96       	adiw	r24, 0x01	; 1
    285c:	17 da       	rcall	.-3026   	; 0x1c8c <vfprintf>
    285e:	ef 81       	ldd	r30, Y+7	; 0x07
    2860:	f8 85       	ldd	r31, Y+8	; 0x08
    2862:	e0 0f       	add	r30, r16
    2864:	f1 1f       	adc	r31, r17
    2866:	10 82       	st	Z, r1
    2868:	2e 96       	adiw	r28, 0x0e	; 14
    286a:	0f b6       	in	r0, 0x3f	; 63
    286c:	f8 94       	cli
    286e:	de bf       	out	0x3e, r29	; 62
    2870:	0f be       	out	0x3f, r0	; 63
    2872:	cd bf       	out	0x3d, r28	; 61
    2874:	df 91       	pop	r29
    2876:	cf 91       	pop	r28
    2878:	1f 91       	pop	r17
    287a:	0f 91       	pop	r16
    287c:	08 95       	ret

0000287e <__ultoa_invert>:
    287e:	fa 01       	movw	r30, r20
    2880:	aa 27       	eor	r26, r26
    2882:	28 30       	cpi	r18, 0x08	; 8
    2884:	51 f1       	breq	.+84     	; 0x28da <__ultoa_invert+0x5c>
    2886:	20 31       	cpi	r18, 0x10	; 16
    2888:	81 f1       	breq	.+96     	; 0x28ea <__ultoa_invert+0x6c>
    288a:	e8 94       	clt
    288c:	6f 93       	push	r22
    288e:	6e 7f       	andi	r22, 0xFE	; 254
    2890:	6e 5f       	subi	r22, 0xFE	; 254
    2892:	7f 4f       	sbci	r23, 0xFF	; 255
    2894:	8f 4f       	sbci	r24, 0xFF	; 255
    2896:	9f 4f       	sbci	r25, 0xFF	; 255
    2898:	af 4f       	sbci	r26, 0xFF	; 255
    289a:	b1 e0       	ldi	r27, 0x01	; 1
    289c:	3e d0       	rcall	.+124    	; 0x291a <__ultoa_invert+0x9c>
    289e:	b4 e0       	ldi	r27, 0x04	; 4
    28a0:	3c d0       	rcall	.+120    	; 0x291a <__ultoa_invert+0x9c>
    28a2:	67 0f       	add	r22, r23
    28a4:	78 1f       	adc	r23, r24
    28a6:	89 1f       	adc	r24, r25
    28a8:	9a 1f       	adc	r25, r26
    28aa:	a1 1d       	adc	r26, r1
    28ac:	68 0f       	add	r22, r24
    28ae:	79 1f       	adc	r23, r25
    28b0:	8a 1f       	adc	r24, r26
    28b2:	91 1d       	adc	r25, r1
    28b4:	a1 1d       	adc	r26, r1
    28b6:	6a 0f       	add	r22, r26
    28b8:	71 1d       	adc	r23, r1
    28ba:	81 1d       	adc	r24, r1
    28bc:	91 1d       	adc	r25, r1
    28be:	a1 1d       	adc	r26, r1
    28c0:	20 d0       	rcall	.+64     	; 0x2902 <__ultoa_invert+0x84>
    28c2:	09 f4       	brne	.+2      	; 0x28c6 <__ultoa_invert+0x48>
    28c4:	68 94       	set
    28c6:	3f 91       	pop	r19
    28c8:	2a e0       	ldi	r18, 0x0A	; 10
    28ca:	26 9f       	mul	r18, r22
    28cc:	11 24       	eor	r1, r1
    28ce:	30 19       	sub	r19, r0
    28d0:	30 5d       	subi	r19, 0xD0	; 208
    28d2:	31 93       	st	Z+, r19
    28d4:	de f6       	brtc	.-74     	; 0x288c <__ultoa_invert+0xe>
    28d6:	cf 01       	movw	r24, r30
    28d8:	08 95       	ret
    28da:	46 2f       	mov	r20, r22
    28dc:	47 70       	andi	r20, 0x07	; 7
    28de:	40 5d       	subi	r20, 0xD0	; 208
    28e0:	41 93       	st	Z+, r20
    28e2:	b3 e0       	ldi	r27, 0x03	; 3
    28e4:	0f d0       	rcall	.+30     	; 0x2904 <__ultoa_invert+0x86>
    28e6:	c9 f7       	brne	.-14     	; 0x28da <__ultoa_invert+0x5c>
    28e8:	f6 cf       	rjmp	.-20     	; 0x28d6 <__ultoa_invert+0x58>
    28ea:	46 2f       	mov	r20, r22
    28ec:	4f 70       	andi	r20, 0x0F	; 15
    28ee:	40 5d       	subi	r20, 0xD0	; 208
    28f0:	4a 33       	cpi	r20, 0x3A	; 58
    28f2:	18 f0       	brcs	.+6      	; 0x28fa <__ultoa_invert+0x7c>
    28f4:	49 5d       	subi	r20, 0xD9	; 217
    28f6:	31 fd       	sbrc	r19, 1
    28f8:	40 52       	subi	r20, 0x20	; 32
    28fa:	41 93       	st	Z+, r20
    28fc:	02 d0       	rcall	.+4      	; 0x2902 <__ultoa_invert+0x84>
    28fe:	a9 f7       	brne	.-22     	; 0x28ea <__ultoa_invert+0x6c>
    2900:	ea cf       	rjmp	.-44     	; 0x28d6 <__ultoa_invert+0x58>
    2902:	b4 e0       	ldi	r27, 0x04	; 4
    2904:	a6 95       	lsr	r26
    2906:	97 95       	ror	r25
    2908:	87 95       	ror	r24
    290a:	77 95       	ror	r23
    290c:	67 95       	ror	r22
    290e:	ba 95       	dec	r27
    2910:	c9 f7       	brne	.-14     	; 0x2904 <__ultoa_invert+0x86>
    2912:	00 97       	sbiw	r24, 0x00	; 0
    2914:	61 05       	cpc	r22, r1
    2916:	71 05       	cpc	r23, r1
    2918:	08 95       	ret
    291a:	9b 01       	movw	r18, r22
    291c:	ac 01       	movw	r20, r24
    291e:	0a 2e       	mov	r0, r26
    2920:	06 94       	lsr	r0
    2922:	57 95       	ror	r21
    2924:	47 95       	ror	r20
    2926:	37 95       	ror	r19
    2928:	27 95       	ror	r18
    292a:	ba 95       	dec	r27
    292c:	c9 f7       	brne	.-14     	; 0x2920 <__ultoa_invert+0xa2>
    292e:	62 0f       	add	r22, r18
    2930:	73 1f       	adc	r23, r19
    2932:	84 1f       	adc	r24, r20
    2934:	95 1f       	adc	r25, r21
    2936:	a0 1d       	adc	r26, r0
    2938:	08 95       	ret

0000293a <_exit>:
    293a:	f8 94       	cli

0000293c <__stop_program>:
    293c:	ff cf       	rjmp	.-2      	; 0x293c <__stop_program>
